
Centralina.elf:     file format elf32-avr

Sections:
Idx Name          Size      VMA       LMA       File off  Algn
  0 .text         00002742  00000000  00000000  000000b4  2**1
                  CONTENTS, ALLOC, LOAD, READONLY, CODE
  1 .data         000001a8  00800060  00002742  000027f6  2**0
                  CONTENTS, ALLOC, LOAD, DATA
  2 .bss          0000011e  00800208  00800208  0000299e  2**0
                  ALLOC
  3 .eeprom       00000029  00810000  00810000  0000299e  2**0
                  CONTENTS, ALLOC, LOAD, DATA
  4 .comment      0000005c  00000000  00000000  000029c7  2**0
                  CONTENTS, READONLY
  5 .note.gnu.avr.deviceinfo 0000003c  00000000  00000000  00002a24  2**2
                  CONTENTS, READONLY
  6 .debug_aranges 000004e0  00000000  00000000  00002a60  2**3
                  CONTENTS, READONLY, DEBUGGING
  7 .debug_info   00006052  00000000  00000000  00002f40  2**0
                  CONTENTS, READONLY, DEBUGGING
  8 .debug_abbrev 00001e6f  00000000  00000000  00008f92  2**0
                  CONTENTS, READONLY, DEBUGGING
  9 .debug_line   00002e69  00000000  00000000  0000ae01  2**0
                  CONTENTS, READONLY, DEBUGGING
 10 .debug_frame  0000090c  00000000  00000000  0000dc6c  2**2
                  CONTENTS, READONLY, DEBUGGING
 11 .debug_str    000017cd  00000000  00000000  0000e578  2**0
                  CONTENTS, READONLY, DEBUGGING
 12 .debug_loc    00001f74  00000000  00000000  0000fd45  2**0
                  CONTENTS, READONLY, DEBUGGING
 13 .debug_ranges 00000330  00000000  00000000  00011cb9  2**0
                  CONTENTS, READONLY, DEBUGGING

Disassembly of section .text:

00000000 <__vectors>:
       0:	0c 94 e8 00 	jmp	0x1d0	; 0x1d0 <__ctors_end>
       4:	0c 94 05 01 	jmp	0x20a	; 0x20a <__bad_interrupt>
       8:	0c 94 05 01 	jmp	0x20a	; 0x20a <__bad_interrupt>
       c:	0c 94 41 08 	jmp	0x1082	; 0x1082 <__vector_3>
      10:	0c 94 05 01 	jmp	0x20a	; 0x20a <__bad_interrupt>
      14:	0c 94 05 01 	jmp	0x20a	; 0x20a <__bad_interrupt>
      18:	0c 94 05 01 	jmp	0x20a	; 0x20a <__bad_interrupt>
      1c:	0c 94 05 01 	jmp	0x20a	; 0x20a <__bad_interrupt>
      20:	0c 94 05 01 	jmp	0x20a	; 0x20a <__bad_interrupt>
      24:	0c 94 05 01 	jmp	0x20a	; 0x20a <__bad_interrupt>
      28:	0c 94 05 01 	jmp	0x20a	; 0x20a <__bad_interrupt>
      2c:	0c 94 05 01 	jmp	0x20a	; 0x20a <__bad_interrupt>
      30:	0c 94 05 01 	jmp	0x20a	; 0x20a <__bad_interrupt>
      34:	0c 94 05 01 	jmp	0x20a	; 0x20a <__bad_interrupt>
      38:	0c 94 05 01 	jmp	0x20a	; 0x20a <__bad_interrupt>
      3c:	0c 94 05 01 	jmp	0x20a	; 0x20a <__bad_interrupt>
      40:	0c 94 05 01 	jmp	0x20a	; 0x20a <__bad_interrupt>
      44:	0c 94 05 01 	jmp	0x20a	; 0x20a <__bad_interrupt>
      48:	0c 94 05 01 	jmp	0x20a	; 0x20a <__bad_interrupt>
      4c:	0c 94 05 01 	jmp	0x20a	; 0x20a <__bad_interrupt>
      50:	0c 94 05 01 	jmp	0x20a	; 0x20a <__bad_interrupt>
      54:	aa 05       	cpc	r26, r10
      56:	b4 05       	cpc	r27, r4
      58:	b9 05       	cpc	r27, r9
      5a:	be 05       	cpc	r27, r14
      5c:	cd 05       	cpc	r28, r13
      5e:	a5 05       	cpc	r26, r5
      60:	d8 05       	cpc	r29, r8
      62:	dd 05       	cpc	r29, r13
      64:	d6 05       	cpc	r29, r6
      66:	d4 05       	cpc	r29, r4
      68:	d2 05       	cpc	r29, r2
      6a:	dd 05       	cpc	r29, r13
      6c:	af 05       	cpc	r26, r15
      6e:	c8 05       	cpc	r28, r8
      70:	c3 05       	cpc	r28, r3
      72:	08 00       	.word	0x0008	; ????
      74:	00 00       	nop
      76:	be 92       	st	-X, r11
      78:	24 49       	sbci	r18, 0x94	; 148
      7a:	12 3e       	cpi	r17, 0xE2	; 226
      7c:	ab aa       	std	Y+51, r10	; 0x33
      7e:	aa 2a       	or	r10, r26
      80:	be cd       	rjmp	.-1156   	; 0xfffffbfe <__eeprom_end+0xff7efbd5>
      82:	cc cc       	rjmp	.-1640   	; 0xfffffa1c <__eeprom_end+0xff7ef9f3>
      84:	4c 3e       	cpi	r20, 0xEC	; 236
      86:	00 00       	nop
      88:	00 80       	ld	r0, Z
      8a:	be ab       	std	Y+54, r27	; 0x36
      8c:	aa aa       	std	Y+50, r10	; 0x32
      8e:	aa 3e       	cpi	r26, 0xEA	; 234
      90:	00 00       	nop
      92:	00 00       	nop
      94:	bf 00       	.word	0x00bf	; ????
      96:	00 00       	nop
      98:	80 3f       	cpi	r24, 0xF0	; 240
      9a:	00 00       	nop
      9c:	00 00       	nop
      9e:	00 08       	sbc	r0, r0
      a0:	41 78       	andi	r20, 0x81	; 129
      a2:	d3 bb       	out	0x13, r29	; 19
      a4:	43 87       	std	Z+11, r20	; 0x0b
      a6:	d1 13       	cpse	r29, r17
      a8:	3d 19       	sub	r19, r13
      aa:	0e 3c       	cpi	r16, 0xCE	; 206
      ac:	c3 bd       	out	0x23, r28	; 35
      ae:	42 82       	std	Z+2, r4	; 0x02
      b0:	ad 2b       	or	r26, r29
      b2:	3e 68       	ori	r19, 0x8E	; 142
      b4:	ec 82       	std	Y+4, r14	; 0x04
      b6:	76 be       	out	0x36, r7	; 54
      b8:	d9 8f       	std	Y+25, r29	; 0x19
      ba:	e1 a9       	ldd	r30, Z+49	; 0x31
      bc:	3e 4c       	sbci	r19, 0xCE	; 206
      be:	80 ef       	ldi	r24, 0xF0	; 240
      c0:	ff be       	out	0x3f, r15	; 63
      c2:	01 c4       	rjmp	.+2050   	; 0x8c6 <KeypadTask+0xa8>
      c4:	ff 7f       	andi	r31, 0xFF	; 255
      c6:	3f 00       	.word	0x003f	; ????
      c8:	00 00       	nop
	...

000000cc <__trampolines_end>:
      cc:	00 40       	sbci	r16, 0x00	; 0
      ce:	7a 10       	cpse	r7, r10
      d0:	f3 5a       	subi	r31, 0xA3	; 163
      d2:	00 a0       	ldd	r0, Z+32	; 0x20
      d4:	72 4e       	sbci	r23, 0xE2	; 226
      d6:	18 09       	sbc	r17, r8
      d8:	00 10       	cpse	r0, r0
      da:	a5 d4       	rcall	.+2378   	; 0xa26 <main+0x4c>
      dc:	e8 00       	.word	0x00e8	; ????
      de:	00 e8       	ldi	r16, 0x80	; 128
      e0:	76 48       	sbci	r23, 0x86	; 134
      e2:	17 00       	.word	0x0017	; ????
      e4:	00 e4       	ldi	r16, 0x40	; 64
      e6:	0b 54       	subi	r16, 0x4B	; 75
      e8:	02 00       	.word	0x0002	; ????
      ea:	00 ca       	rjmp	.-3072   	; 0xfffff4ec <__eeprom_end+0xff7ef4c3>
      ec:	9a 3b       	cpi	r25, 0xBA	; 186
      ee:	00 00       	nop
      f0:	00 e1       	ldi	r16, 0x10	; 16
      f2:	f5 05       	cpc	r31, r5
      f4:	00 00       	nop
      f6:	80 96       	adiw	r24, 0x20	; 32
      f8:	98 00       	.word	0x0098	; ????
      fa:	00 00       	nop
      fc:	40 42       	sbci	r20, 0x20	; 32
      fe:	0f 00       	.word	0x000f	; ????
     100:	00 00       	nop
     102:	a0 86       	std	Z+8, r10	; 0x08
     104:	01 00       	.word	0x0001	; ????
     106:	00 00       	nop
     108:	10 27       	eor	r17, r16
     10a:	00 00       	nop
     10c:	00 00       	nop
     10e:	e8 03       	fmulsu	r22, r16
     110:	00 00       	nop
     112:	00 00       	nop
     114:	64 00       	.word	0x0064	; ????
     116:	00 00       	nop
     118:	00 00       	nop
     11a:	0a 00       	.word	0x000a	; ????
     11c:	00 00       	nop
     11e:	00 00       	nop
     120:	01 00       	.word	0x0001	; ????
     122:	00 00       	nop
     124:	00 00       	nop
     126:	2c 76       	andi	r18, 0x6C	; 108
     128:	d8 88       	ldd	r13, Y+16	; 0x10
     12a:	dc 67       	ori	r29, 0x7C	; 124
     12c:	4f 08       	sbc	r4, r15
     12e:	23 df       	rcall	.-442    	; 0xffffff76 <__eeprom_end+0xff7eff4d>
     130:	c1 df       	rcall	.-126    	; 0xb4 <__SREG__+0x75>
     132:	ae 59       	subi	r26, 0x9E	; 158
     134:	e1 b1       	in	r30, 0x01	; 1
     136:	b7 96       	adiw	r30, 0x27	; 39
     138:	e5 e3       	ldi	r30, 0x35	; 53
     13a:	e4 53       	subi	r30, 0x34	; 52
     13c:	c6 3a       	cpi	r28, 0xA6	; 166
     13e:	e6 51       	subi	r30, 0x16	; 22
     140:	99 76       	andi	r25, 0x69	; 105
     142:	96 e8       	ldi	r25, 0x86	; 134
     144:	e6 c2       	rjmp	.+1484   	; 0x712 <LEDSendData+0x2a>
     146:	84 26       	eor	r8, r20
     148:	eb 89       	ldd	r30, Y+19	; 0x13
     14a:	8c 9b       	sbis	0x11, 4	; 17
     14c:	62 ed       	ldi	r22, 0xD2	; 210
     14e:	40 7c       	andi	r20, 0xC0	; 192
     150:	6f fc       	.word	0xfc6f	; ????
     152:	ef bc       	out	0x2f, r14	; 47
     154:	9c 9f       	mul	r25, r28
     156:	40 f2       	brcs	.-112    	; 0xe8 <__trampolines_end+0x1c>
     158:	ba a5       	ldd	r27, Y+42	; 0x2a
     15a:	6f a5       	ldd	r22, Y+47	; 0x2f
     15c:	f4 90       	lpm	r15, Z
     15e:	05 5a       	subi	r16, 0xA5	; 165
     160:	2a f7       	brpl	.-54     	; 0x12c <__trampolines_end+0x60>
     162:	5c 93       	st	X, r21
     164:	6b 6c       	ori	r22, 0xCB	; 203
     166:	f9 67       	ori	r31, 0x79	; 121
     168:	6d c1       	rjmp	.+730    	; 0x444 <__DATA_REGION_LENGTH__+0x44>
     16a:	1b fc       	.word	0xfc1b	; ????
     16c:	e0 e4       	ldi	r30, 0x40	; 64
     16e:	0d 47       	sbci	r16, 0x7D	; 125
     170:	fe f5       	brtc	.+126    	; 0x1f0 <__do_copy_data+0x14>
     172:	20 e6       	ldi	r18, 0x60	; 96
     174:	b5 00       	.word	0x00b5	; ????
     176:	d0 ed       	ldi	r29, 0xD0	; 208
     178:	90 2e       	mov	r9, r16
     17a:	03 00       	.word	0x0003	; ????
     17c:	94 35       	cpi	r25, 0x54	; 84
     17e:	77 05       	cpc	r23, r7
     180:	00 80       	ld	r0, Z
     182:	84 1e       	adc	r8, r20
     184:	08 00       	.word	0x0008	; ????
     186:	00 20       	and	r0, r0
     188:	4e 0a       	sbc	r4, r30
     18a:	00 00       	nop
     18c:	00 c8       	rjmp	.-4096   	; 0xfffff18e <__eeprom_end+0xff7ef165>
     18e:	0c 33       	cpi	r16, 0x3C	; 60
     190:	33 33       	cpi	r19, 0x33	; 51
     192:	33 0f       	add	r19, r19
     194:	98 6e       	ori	r25, 0xE8	; 232
     196:	12 83       	std	Z+2, r17	; 0x02
     198:	11 41       	sbci	r17, 0x11	; 17
     19a:	ef 8d       	ldd	r30, Y+31	; 0x1f
     19c:	21 14       	cp	r2, r1
     19e:	89 3b       	cpi	r24, 0xB9	; 185
     1a0:	e6 55       	subi	r30, 0x56	; 86
     1a2:	16 cf       	rjmp	.-468    	; 0xffffffd0 <__eeprom_end+0xff7effa7>
     1a4:	fe e6       	ldi	r31, 0x6E	; 110
     1a6:	db 18       	sub	r13, r11
     1a8:	d1 84       	ldd	r13, Z+9	; 0x09
     1aa:	4b 38       	cpi	r20, 0x8B	; 139
     1ac:	1b f7       	brvc	.-58     	; 0x174 <__trampolines_end+0xa8>
     1ae:	7c 1d       	adc	r23, r12
     1b0:	90 1d       	adc	r25, r0
     1b2:	a4 bb       	out	0x14, r26	; 20
     1b4:	e4 24       	eor	r14, r4
     1b6:	20 32       	cpi	r18, 0x20	; 32
     1b8:	84 72       	andi	r24, 0x24	; 36
     1ba:	5e 22       	and	r5, r30
     1bc:	81 00       	.word	0x0081	; ????
     1be:	c9 f1       	breq	.+114    	; 0x232 <byte1+0xe>
     1c0:	24 ec       	ldi	r18, 0xC4	; 196
     1c2:	a1 e5       	ldi	r26, 0x51	; 81
     1c4:	3d 27       	eor	r19, r29

000001c6 <g_lcdNumbers>:
     1c6:	7b 0a 57 1f 2e 3d 7d 0b 7f 3f                       {.W..=}..?

000001d0 <__ctors_end>:
     1d0:	11 24       	eor	r1, r1
     1d2:	1f be       	out	0x3f, r1	; 63
     1d4:	cf e5       	ldi	r28, 0x5F	; 95
     1d6:	d4 e0       	ldi	r29, 0x04	; 4
     1d8:	de bf       	out	0x3e, r29	; 62
     1da:	cd bf       	out	0x3d, r28	; 61

000001dc <__do_copy_data>:
     1dc:	12 e0       	ldi	r17, 0x02	; 2
     1de:	a0 e6       	ldi	r26, 0x60	; 96
     1e0:	b0 e0       	ldi	r27, 0x00	; 0
     1e2:	e2 e4       	ldi	r30, 0x42	; 66
     1e4:	f7 e2       	ldi	r31, 0x27	; 39
     1e6:	02 c0       	rjmp	.+4      	; 0x1ec <__do_copy_data+0x10>
     1e8:	05 90       	lpm	r0, Z+
     1ea:	0d 92       	st	X+, r0
     1ec:	a8 30       	cpi	r26, 0x08	; 8
     1ee:	b1 07       	cpc	r27, r17
     1f0:	d9 f7       	brne	.-10     	; 0x1e8 <__do_copy_data+0xc>

000001f2 <__do_clear_bss>:
     1f2:	23 e0       	ldi	r18, 0x03	; 3
     1f4:	a8 e0       	ldi	r26, 0x08	; 8
     1f6:	b2 e0       	ldi	r27, 0x02	; 2
     1f8:	01 c0       	rjmp	.+2      	; 0x1fc <.do_clear_bss_start>

000001fa <.do_clear_bss_loop>:
     1fa:	1d 92       	st	X+, r1

000001fc <.do_clear_bss_start>:
     1fc:	a6 32       	cpi	r26, 0x26	; 38
     1fe:	b2 07       	cpc	r27, r18
     200:	e1 f7       	brne	.-8      	; 0x1fa <.do_clear_bss_loop>
     202:	0e 94 ed 04 	call	0x9da	; 0x9da <main>
     206:	0c 94 9f 13 	jmp	0x273e	; 0x273e <_exit>

0000020a <__bad_interrupt>:
     20a:	0c 94 00 00 	jmp	0	; 0x0 <__vectors>

0000020e <LEDSendDataAsm>:
*** */

.global LEDSendDataAsm

LEDSendDataAsm:
            cli                              ;Disable interrupts
     20e:	f8 94       	cli
            // Save working registers
            push  counter                    ;Save counter register (r20) in the stack
     210:	4f 93       	push	r20
            //
            // National MM5481N IC led driver serial data communication
            //
            cbi   LED_PORT, LED_DATA_ENABLE  ;DATA_ENABLE is active low signal
     212:	96 98       	cbi	0x12, 6	; 18
            nop                              ;tDS: Set-up time
     214:	00 00       	nop
            //
            // Send START condition. A start bit of logical '1'
            //
            sbi   LED_PORT, LED_DATA         ;DATA HIGH
     216:	94 9a       	sbi	0x12, 4	; 18
            nop                              ;tDH: Data Hold time
     218:	00 00       	nop
            sbi   LED_PORT, LED_CLOCK_IN     ;CLOCK HIGH
     21a:	95 9a       	sbi	0x12, 5	; 18
            rcall LEDDelay                   ;tH: Clock HIGH time (950nS)
     21c:	43 d0       	rcall	.+134    	; 0x2a4 <LEDDelay>
            cbi   LED_PORT, LED_CLOCK_IN     ;CLOCK low
     21e:	95 98       	cbi	0x12, 5	; 18
            rcall LEDDelay                   ;tL: Clock low time (950nS)
     220:	41 d0       	rcall	.+130    	; 0x2a4 <LEDDelay>
            //
            // First byte of (uint32_t ui32Data) in r22 (LSB)
            //
            ldi   counter, BIT_COUNTER       ;Dec:8 for (i=8; i > 0; i--) {...}
     222:	48 e0       	ldi	r20, 0x08	; 8

00000224 <byte1>:
byte1:      sbrs  r22, BIT_POSITION          ;if (r22.bit0 == 1) skip else DATA = low
     224:	60 ff       	sbrs	r22, 0
            cbi   LED_PORT, LED_DATA         ;Set DATA low. LED off
     226:	94 98       	cbi	0x12, 4	; 18
            sbrc  r22, BIT_POSITION          ;if (r25.bit0 == 0) skip else DATA = HIGH
     228:	60 fd       	sbrc	r22, 0
            sbi   LED_PORT, LED_DATA         ;Set DATA HIGH. LED on
     22a:	94 9a       	sbi	0x12, 4	; 18
            // Data LED1..LED4               ;2..9 CLB pulses
            sbi   LED_PORT, LED_CLOCK_IN     ;CLOCK HIGH
     22c:	95 9a       	sbi	0x12, 5	; 18
            rcall LEDDelay                   ;tDH: Clock HIGH time (950nS)
     22e:	3a d0       	rcall	.+116    	; 0x2a4 <LEDDelay>
            cbi   LED_PORT, LED_CLOCK_IN     ;CLOCK low
     230:	95 98       	cbi	0x12, 5	; 18
            rcall LEDDelay                   ;tDL: Clock low time (950nS)
     232:	38 d0       	rcall	.+112    	; 0x2a4 <LEDDelay>
            lsr   r22                        ;Shift r25 one bit right to ask for the next bit
     234:	66 95       	lsr	r22
            dec   counter                    ;Decrement i (r20)
     236:	4a 95       	dec	r20
            brne  byte1                      ;if (i == 0) break else continue
     238:	a9 f7       	brne	.-22     	; 0x224 <byte1>
            //
            // Second byte of (uint32_t ui32Data) in r23
            //
            ldi   counter, BIT_COUNTER       ;Dec:8 for (i=8; i > 0; i--) {...}
     23a:	48 e0       	ldi	r20, 0x08	; 8

0000023c <byte2>:
byte2:      sbrs  r23, BIT_POSITION          ;if (r23.bit0 == 1) skip else DATA = low
     23c:	70 ff       	sbrs	r23, 0
            cbi   LED_PORT, LED_DATA         ;Set DATA low. LED off
     23e:	94 98       	cbi	0x12, 4	; 18
            sbrc  r23, BIT_POSITION          ;if (r24.bit0 == 0) skip else DATA = HIGH
     240:	70 fd       	sbrc	r23, 0
            sbi   LED_PORT, LED_DATA         ;Set DATA HIGH. LED on
     242:	94 9a       	sbi	0x12, 4	; 18
            // Data LED5..LED8               ;10..17 CLB pulses
            sbi   LED_PORT, LED_CLOCK_IN     ;CLOCK HIGH
     244:	95 9a       	sbi	0x12, 5	; 18
            rcall LEDDelay                   ;tDH: Clock HIGH time (950nS)
     246:	2e d0       	rcall	.+92     	; 0x2a4 <LEDDelay>
            cbi   LED_PORT, LED_CLOCK_IN     ;CLOCK low
     248:	95 98       	cbi	0x12, 5	; 18
            rcall LEDDelay                   ;tDL: Clock low time (950nS)
     24a:	2c d0       	rcall	.+88     	; 0x2a4 <LEDDelay>
            lsr   r23                        ;Shift r23 one bit right to ask for the next bit
     24c:	76 95       	lsr	r23
            dec   counter                    ;Decrement i (r20)
     24e:	4a 95       	dec	r20
            brne  byte2                      ;if (i == 0) break else continue
     250:	a9 f7       	brne	.-22     	; 0x23c <byte2>
            //
            // Third byte of (uint32_t ui32Data) in r24
            //
            ldi   counter, BIT_COUNTER       ;Dec:8 for (i=8; i > 0; i--) {...}
     252:	48 e0       	ldi	r20, 0x08	; 8

00000254 <byte3>:
byte3:      sbrs  r24, BIT_POSITION          ;if (r24.bit0 == 1) skip else DATA = low
     254:	80 ff       	sbrs	r24, 0
            cbi   LED_PORT, LED_DATA         ;Set DATA low. LED off
     256:	94 98       	cbi	0x12, 4	; 18
            sbrc  r24, BIT_POSITION          ;if (r24.bit0 == 0) skip else DATA = HIGH
     258:	80 fd       	sbrc	r24, 0
            sbi   LED_PORT, LED_DATA         ;Set DATA HIGH. LED on
     25a:	94 9a       	sbi	0x12, 4	; 18
            // Data LED9..LED12              ;18..25 CLB pulses
            sbi   LED_PORT, LED_CLOCK_IN     ;CLOCK HIGH
     25c:	95 9a       	sbi	0x12, 5	; 18
            rcall LEDDelay                   ;tDH: Clock HIGH time (950nS)
     25e:	22 d0       	rcall	.+68     	; 0x2a4 <LEDDelay>
            cbi   LED_PORT, LED_CLOCK_IN     ;CLOCK low
     260:	95 98       	cbi	0x12, 5	; 18
            rcall LEDDelay                   ;tDL: Clock low time (950nS)
     262:	20 d0       	rcall	.+64     	; 0x2a4 <LEDDelay>
            lsr   r24                        ;Shift r24 one bit right to ask for another bit
     264:	86 95       	lsr	r24
            dec   counter                    ;Decrement i (r20)
     266:	4a 95       	dec	r20
            brne  byte3                      ;if (i == 0) break else continue
     268:	a9 f7       	brne	.-22     	; 0x254 <byte3>
            //
            // Fourth byte of (uint32_t ui32Data) in r25 (MSB)
            //
            ldi   counter, BIT_COUNTER       ;Dec:8 for (i=8; i > 0; i--) {...}
     26a:	48 e0       	ldi	r20, 0x08	; 8

0000026c <byte4>:
byte4:      sbrs  r25, BIT_POSITION          ;if (r25.bit0 == 1) skip else DATA = low
     26c:	90 ff       	sbrs	r25, 0
            cbi   LED_PORT, LED_DATA         ;Set DATA low. LED off
     26e:	94 98       	cbi	0x12, 4	; 18
            sbrc  r25, BIT_POSITION          ;if (r22.bit0 == 0) skip else DATA = HIGH
     270:	90 fd       	sbrc	r25, 0
            sbi   LED_PORT, LED_DATA         ;Set DATA HIGH. LED on
     272:	94 9a       	sbi	0x12, 4	; 18
            // Data LED13..LED14             ;26..33 CLB pulses
            sbi   LED_PORT, LED_CLOCK_IN     ;CLOCK HIGH
     274:	95 9a       	sbi	0x12, 5	; 18
            rcall LEDDelay                   ;tDH: Clock HIGH time (950nS)
     276:	16 d0       	rcall	.+44     	; 0x2a4 <LEDDelay>
            cbi   LED_PORT, LED_CLOCK_IN     ;CLOCK low
     278:	95 98       	cbi	0x12, 5	; 18
            rcall LEDDelay                   ;tDL: Clock low time (950nS)
     27a:	14 d0       	rcall	.+40     	; 0x2a4 <LEDDelay>
            lsr   r25                        ;Shift r22 one bit right to ask for another bit
     27c:	96 95       	lsr	r25
            dec   counter                    ;Decrement i (r20)
     27e:	4a 95       	dec	r20
            brne  byte4                      ;if (i == 0) break else continue
     280:	a9 f7       	brne	.-22     	; 0x26c <byte4>
            //
            // The MM5481x drive 14 leds, while the MM5450x can drive 34 leds, we only send 32 bits of data
            // for the MM5481x, for the MM5450x we need send one extra byte for the other two led (LED33 and LED34), 
            // we ommited here!
            //
            cbi   LED_PORT, LED_DATA         ;Set led 33 and 34 off (Default)
     282:	94 98       	cbi	0x12, 4	; 18
            // Clock 34
            sbi   LED_PORT, LED_CLOCK_IN     ;CLOCK HIGH
     284:	95 9a       	sbi	0x12, 5	; 18
            rcall LEDDelay                   ;tDH: Clock HIGH time (950nS)
     286:	0e d0       	rcall	.+28     	; 0x2a4 <LEDDelay>
            cbi   LED_PORT, LED_CLOCK_IN     ;CLOCK low
     288:	95 98       	cbi	0x12, 5	; 18
            rcall LEDDelay                   ;tDL: Clock low time (950nS)
     28a:	0c d0       	rcall	.+24     	; 0x2a4 <LEDDelay>
            // Clock 35
            sbi   LED_PORT, LED_CLOCK_IN     ;CLOCK HIGH
     28c:	95 9a       	sbi	0x12, 5	; 18
            rcall LEDDelay                   ;tDH: Clock HIGH time (950nS)
     28e:	0a d0       	rcall	.+20     	; 0x2a4 <LEDDelay>
            cbi   LED_PORT, LED_CLOCK_IN     ;CLOCK low
     290:	95 98       	cbi	0x12, 5	; 18
            rcall LEDDelay                   ;tDL: Clock low time (950nS)
     292:	08 d0       	rcall	.+16     	; 0x2a4 <LEDDelay>
            //
            // After the 36th bit data is latched and transmit is complete
            //
            // Clock 36
            sbi   LED_PORT, LED_CLOCK_IN     ;CLOCK HIGH
     294:	95 9a       	sbi	0x12, 5	; 18
            rcall LEDDelay                   ;tDH: Clock HIGH time (950nS)
     296:	06 d0       	rcall	.+12     	; 0x2a4 <LEDDelay>
            cbi   LED_PORT, LED_CLOCK_IN     ;CLOCK low
     298:	95 98       	cbi	0x12, 5	; 18
            rcall LEDDelay                   ;tDL: Clock low time (950nS)
     29a:	04 d0       	rcall	.+8      	; 0x2a4 <LEDDelay>
            // End transmision
            sbi   LED_PORT, LED_DATA_ENABLE  ;DATA_ENABLE is active low signal
     29c:	96 9a       	sbi	0x12, 6	; 18
            sei                              ;Enable interrupts
     29e:	78 94       	sei
            pop   counter                    ;Restore counter register (r20) from the stack
     2a0:	4f 91       	pop	r20
            ret                              ;return
     2a2:	08 95       	ret

000002a4 <LEDDelay>:
LEDDelay:   push  delay                      ;Save delay register (r19) in the stack
     2a4:	3f 93       	push	r19
            ldi   delay, LED_DELAY           ;Load delay time. 8MHz=0,125uS*10=1.25uS
     2a6:	38 e0       	ldi	r19, 0x08	; 8

000002a8 <dly>:
dly:        dec   delay                      ;for (delay=delay_time; delay > 0; delay--) {
     2a8:	3a 95       	dec	r19
            brne  dly                        ;...}
     2aa:	f1 f7       	brne	.-4      	; 0x2a8 <dly>
            pop   delay                      ;Restore delay register (r19) from the stack
     2ac:	3f 91       	pop	r19
            ret                              ;return
     2ae:	08 95       	ret

000002b0 <LCDSendDataAsm>:
*** */

.global LCDSendDataAsm

LCDSendDataAsm:
            cli                              ;Disable interrupts
     2b0:	f8 94       	cli
            // Save working registers
            push  counter                    ;Save counter register (r19) in the stack
     2b2:	3f 93       	push	r19
            //
            // NXP PCF2112Cx C-Bus serial data
            //
            cbi   LCD_PORT, LCD_DATA         ;Prepare leading zero bit
     2b4:	c2 98       	cbi	0x18, 2	; 24
            nop
     2b6:	00 00       	nop
            sbi   LCD_PORT, LCD_DLEN         ;Set DLEN HIGH. Enable data transmit
     2b8:	c0 9a       	sbi	0x18, 0	; 24
            nop                              ;tSUEN: Enable setup time
     2ba:	00 00       	nop
            //
            // Send Leading zero bit
            //                               ;1 CLB pulse
            sbi   LCD_PORT, LCD_CLOCK_IN     ;CLOCK HIGH
     2bc:	c1 9a       	sbi	0x18, 1	; 24
            rcall LCDDelayH                  ;tDH: Clock HIGH time
     2be:	44 d0       	rcall	.+136    	; 0x348 <LCDDelayH>
            cbi   LCD_PORT, LCD_CLOCK_IN     ;CLOCK low
     2c0:	c1 98       	cbi	0x18, 1	; 24
            rcall LCDDelayL   
     2c2:	48 d0       	rcall	.+144    	; 0x354 <LCDDelayL>
                                             ;tHDDA: Data hold time
            //
            // First byte of (uint32_t ui32Data) in r22 (LSB)
            //
            ldi   counter, BIT_COUNTER       ;Dec:8 for (i=8; i > 0; i--) {...}
     2c4:	38 e0       	ldi	r19, 0x08	; 8

000002c6 <byte1>:
byte1:      sbrs  r22, BIT_POSITION          ;if (r22.bit0 == 1) skip else DATA = low
     2c6:	60 ff       	sbrs	r22, 0
            cbi   LCD_PORT, LCD_DATA         ;Set DATA low. LCD Segment off
     2c8:	c2 98       	cbi	0x18, 2	; 24
            sbrc  r22, BIT_POSITION          ;if (r22.bit0 == 0) skip else DATA = HIGH
     2ca:	60 fd       	sbrc	r22, 0
            sbi   LCD_PORT, LCD_DATA         ;Set DATA HIGH. LCD Segment on
     2cc:	c2 9a       	sbi	0x18, 2	; 24
            // Data LCD S25..S32             ;26..33 CLB pulses
            sbi   LCD_PORT, LCD_CLOCK_IN     ;CLOCK HIGH
     2ce:	c1 9a       	sbi	0x18, 1	; 24
            rcall LCDDelayH                  ;tDH: Clock HIGH time
     2d0:	3b d0       	rcall	.+118    	; 0x348 <LCDDelayH>
            cbi   LCD_PORT, LCD_CLOCK_IN     ;CLOCK low
     2d2:	c1 98       	cbi	0x18, 1	; 24
            rcall LCDDelayL                  ;tDL: Clock low time
     2d4:	3f d0       	rcall	.+126    	; 0x354 <LCDDelayL>
            lsr   r22                        ;Shift r22 one bit right to ask for another bit
     2d6:	66 95       	lsr	r22
            dec   counter                    ;Decrement i (r29)
     2d8:	3a 95       	dec	r19
            brne  byte1                      ;if (i == 0) break else continue
     2da:	a9 f7       	brne	.-22     	; 0x2c6 <byte1>
            //
            // Second byte of (uint32_t ui32Data) in r23
            //
            ldi   counter, BIT_COUNTER       ;Dec:8 for (i=8; i > 0; i--) {...}
     2dc:	38 e0       	ldi	r19, 0x08	; 8

000002de <byte2>:
byte2:      sbrs  r23, BIT_POSITION          ;if (r23.bit0 == 1) skip else DATA = low
     2de:	70 ff       	sbrs	r23, 0
            cbi   LCD_PORT, LCD_DATA         ;Set DATA low. LCD Segment off
     2e0:	c2 98       	cbi	0x18, 2	; 24
            sbrc  r23, BIT_POSITION          ;if (r23.bit0 == 0) skip else DATA = HIGH
     2e2:	70 fd       	sbrc	r23, 0
            sbi   LCD_PORT, LCD_DATA         ;Set DATA HIGH. LCD Segment on
     2e4:	c2 9a       	sbi	0x18, 2	; 24
            // Data LCD S17..24              ;18..25 CLB pulses
            sbi   LCD_PORT, LCD_CLOCK_IN     ;CLOCK HIGH
     2e6:	c1 9a       	sbi	0x18, 1	; 24
            rcall LCDDelayH                  ;tDH: Clock HIGH time
     2e8:	2f d0       	rcall	.+94     	; 0x348 <LCDDelayH>
            cbi   LCD_PORT, LCD_CLOCK_IN     ;CLOCK low
     2ea:	c1 98       	cbi	0x18, 1	; 24
            rcall LCDDelayL                  ;tDL: Clock low time
     2ec:	33 d0       	rcall	.+102    	; 0x354 <LCDDelayL>
            lsr   r23                        ;Shift r23 one bit right to ask for another bit
     2ee:	76 95       	lsr	r23
            dec   counter                    ;Decrement i (r19)
     2f0:	3a 95       	dec	r19
            brne  byte2                      ;if (i == 0) break else continue
     2f2:	a9 f7       	brne	.-22     	; 0x2de <byte2>
            //
            // Third byte of (uint32_t ui32Data) in r24
            //
            ldi   counter, BIT_COUNTER       ;Dec:8 for (i=8; i > 0; i--) {...}
     2f4:	38 e0       	ldi	r19, 0x08	; 8

000002f6 <byte3>:
byte3:      sbrs  r24, BIT_POSITION          ;if (r24.bit0 == 1) skip else DATA = low
     2f6:	80 ff       	sbrs	r24, 0
            cbi   LCD_PORT, LCD_DATA          ;Set DATA low. LCD Segment off
     2f8:	c2 98       	cbi	0x18, 2	; 24
            sbrc  r24, BIT_POSITION          ;if (r24.bit0 == 0) skip else DATA = HIGH
     2fa:	80 fd       	sbrc	r24, 0
            sbi   LCD_PORT, LCD_DATA          ;Set DATA HIGH. LCD Segment on
     2fc:	c2 9a       	sbi	0x18, 2	; 24
            // Data LCD S9..S16              ;10..17 CLB pulses
            sbi   LCD_PORT, LCD_CLOCK_IN      ;CLOCK HIGH
     2fe:	c1 9a       	sbi	0x18, 1	; 24
            rcall LCDDelayH                  ;tDH: Clock HIGH time
     300:	23 d0       	rcall	.+70     	; 0x348 <LCDDelayH>
            cbi   LCD_PORT, LCD_CLOCK_IN      ;CLOCK low
     302:	c1 98       	cbi	0x18, 1	; 24
            rcall LCDDelayL                  ;tDL: Clock low time
     304:	27 d0       	rcall	.+78     	; 0x354 <LCDDelayL>
            lsr   r24                        ;Shift r24 one bit right to ask for the next bit
     306:	86 95       	lsr	r24
            dec   counter                    ;Decrement i (r19)
     308:	3a 95       	dec	r19
            brne  byte3                      ;if (i == 0) break else continue
     30a:	a9 f7       	brne	.-22     	; 0x2f6 <byte3>
            //
            // Fourth byte of (uint32_t ui32Data) in r25 (MSB)
            //
            ldi   counter, BIT_COUNTER       ;Dec:8 for (i=8; i > 0; i--) {...}
     30c:	38 e0       	ldi	r19, 0x08	; 8

0000030e <byte4>:
byte4:      sbrs  r25, BIT_POSITION          ;if (r25.bit0 == 1) skip else DATA = low
     30e:	90 ff       	sbrs	r25, 0
            cbi   LCD_PORT, LCD_DATA         ;Set DATA low. LCD Segment off
     310:	c2 98       	cbi	0x18, 2	; 24
            sbrc  r25, BIT_POSITION          ;if (r25.bit0 == 0) skip else DATA = HIGH
     312:	90 fd       	sbrc	r25, 0
            sbi   LCD_PORT, LCD_DATA         ;Set DATA HIGH. LCD Segment on            
     314:	c2 9a       	sbi	0x18, 2	; 24
            // Data LCD S1..S8               ;2..9 CLB pulses
            sbi   LCD_PORT, LCD_CLOCK_IN     ;CLOCK HIGH
     316:	c1 9a       	sbi	0x18, 1	; 24
            rcall LCDDelayH                  ;tDH: Clock HIGH time
     318:	17 d0       	rcall	.+46     	; 0x348 <LCDDelayH>
            cbi   LCD_PORT, LCD_CLOCK_IN     ;CLOCK low
     31a:	c1 98       	cbi	0x18, 1	; 24
            rcall LCDDelayL                  ;tDL: Clock low time
     31c:	1b d0       	rcall	.+54     	; 0x354 <LCDDelayL>
            lsr   r25                        ;Shift r25 one bit right to ask for the next bit
     31e:	96 95       	lsr	r25
            dec   counter                    ;Decrement i (r19)
     320:	3a 95       	dec	r19
            brne  byte4                      ;if (i == 0) break else continue
     322:	a9 f7       	brne	.-22     	; 0x30e <byte4>
            //
            // Load latches bit
            //
            sbi   LCD_PORT, LCD_DATA         ;Set DATA HIGH
     324:	c2 9a       	sbi	0x18, 2	; 24
            nop                              ;34 CLB pulse
     326:	00 00       	nop
            sbi   LCD_PORT, LCD_CLOCK_IN     ;CLOCK HIGH
     328:	c1 9a       	sbi	0x18, 1	; 24
            rcall LCDDelayH                  ;tDH: Clock HIGH time (950nS)
     32a:	0e d0       	rcall	.+28     	; 0x348 <LCDDelayH>
            cbi   LCD_PORT, LCD_CLOCK_IN     ;CLOCK low
     32c:	c1 98       	cbi	0x18, 1	; 24
            rcall LCDDelayL                  ;tDL: Clock low time (950nS)
     32e:	12 d0       	rcall	.+36     	; 0x354 <LCDDelayL>
            //
            // Disable
            //
            cbi   LCD_PORT, LCD_DATA         ;Set DATA low
     330:	c2 98       	cbi	0x18, 2	; 24
            rcall LCDDelayL                  ;tSUDI
     332:	10 d0       	rcall	.+32     	; 0x354 <LCDDelayL>
            cbi   LCD_PORT, LCD_DLEN         ;Set DLEN low
     334:	c0 98       	cbi	0x18, 0	; 24
            rcall LCDDelayL                  ;tSULD
     336:	0e d0       	rcall	.+28     	; 0x354 <LCDDelayL>
            //
            //  Load pulse
            //
                                             ;35 CLB pulse
            sbi   LCD_PORT, LCD_CLOCK_IN     ;CLOCK HIGH
     338:	c1 9a       	sbi	0x18, 1	; 24
            rcall LCDDelayH                  ;tDH: Clock HIGH time (950nS)
     33a:	06 d0       	rcall	.+12     	; 0x348 <LCDDelayH>
            cbi   LCD_PORT, LCD_CLOCK_IN     ;CLOCK low
     33c:	c1 98       	cbi	0x18, 1	; 24
            rcall LCDDelayL                  ;tDL: Clock low time (950nS)
     33e:	0a d0       	rcall	.+20     	; 0x354 <LCDDelayL>
            //
            //All C-Bus lines low
            //
            rcall LCDDelayL                  ;tBUSY
     340:	09 d0       	rcall	.+18     	; 0x354 <LCDDelayL>
            //
            //End and return to C
            //
            sei                              ;Enable interrupts
     342:	78 94       	sei
            pop   counter                    ;Restore counter register (r19) from the stack
     344:	3f 91       	pop	r19
            ret                              ;return
     346:	08 95       	ret

00000348 <LCDDelayH>:
LCDDelayH:  push  delay                      ;Save delay register (r20) in the stack
     348:	4f 93       	push	r20
            ldi   delay, LCD_DELAY_HIGH      ;Load delay time. 8MHz=0,125uS*8=1uS
     34a:	48 e0       	ldi	r20, 0x08	; 8

0000034c <dlyH>:
dlyH:       dec   delay                      ;for (delay=delay_time; delay > 0; delay--) {
     34c:	4a 95       	dec	r20
            brne  dlyH                       ;...}
     34e:	f1 f7       	brne	.-4      	; 0x34c <dlyH>
            pop   delay                      ;Restore delay register (r20) from the stack
     350:	4f 91       	pop	r20
            ret                              ;return
     352:	08 95       	ret

00000354 <LCDDelayL>:
LCDDelayL:  push  delay                      ;Save delay register (r20) in the stack
     354:	4f 93       	push	r20
            ldi   delay, LCD_DELAY_LOW       ;Load delay time. 8MHz=0,125uS*24=3uS
     356:	48 e1       	ldi	r20, 0x18	; 24

00000358 <dlyL>:
dlyL:       dec   delay                      ;for (delay=delay_time; delay > 0; delay--) {
     358:	4a 95       	dec	r20
            brne  dlyL                       ;...}
     35a:	f1 f7       	brne	.-4      	; 0x358 <dlyL>
            pop   delay                      ;Restore delay register (r20) from the stack
     35c:	4f 91       	pop	r20
            ret                              ;return
     35e:	08 95       	ret

00000360 <ADMInit>:
}


//--- API implementation ---//

void ADMInit(void) {
     360:	cf 93       	push	r28
     362:	df 93       	push	r29
   
   ADM_PORT &= ~ADM_INPUT_MASK;     // L293D.A1 and L293D.A2 LOW (Output LOW)
     364:	82 b3       	in	r24, 0x12	; 18
     366:	87 77       	andi	r24, 0x77	; 119
     368:	82 bb       	out	0x12, r24	; 18
   ADM_DDR  |= ADM_INPUT_MASK;      // DDRx=1, PIN as output
     36a:	81 b3       	in	r24, 0x11	; 17
     36c:	88 68       	ori	r24, 0x88	; 136
     36e:	81 bb       	out	0x11, r24	; 17
   _no_operation();
     370:	00 00       	nop

   // Load ADC position values for the Air Dist. Motor
   g_positionAdc[ADM_FRONT] = EEPROMRead_word(EEADDRSS_ADM_ADC_FRONT);
     372:	82 e1       	ldi	r24, 0x12	; 18
     374:	90 e0       	ldi	r25, 0x00	; 0
     376:	0e 94 a8 03 	call	0x750	; 0x750 <EEPROMRead_word>
     37a:	c8 e0       	ldi	r28, 0x08	; 8
     37c:	d2 e0       	ldi	r29, 0x02	; 2
     37e:	99 83       	std	Y+1, r25	; 0x01
     380:	88 83       	st	Y, r24
   g_positionAdc[ADM_FRONT_FEET] = EEPROMRead_word(EEADDRSS_ADM_ADC_FRONT_FEET);
     382:	84 e1       	ldi	r24, 0x14	; 20
     384:	90 e0       	ldi	r25, 0x00	; 0
     386:	0e 94 a8 03 	call	0x750	; 0x750 <EEPROMRead_word>
     38a:	9b 83       	std	Y+3, r25	; 0x03
     38c:	8a 83       	std	Y+2, r24	; 0x02
   g_positionAdc[ADM_FEET] = EEPROMRead_word(EEADDRSS_ADM_ADC_FEET);
     38e:	86 e1       	ldi	r24, 0x16	; 22
     390:	90 e0       	ldi	r25, 0x00	; 0
     392:	0e 94 a8 03 	call	0x750	; 0x750 <EEPROMRead_word>
     396:	9d 83       	std	Y+5, r25	; 0x05
     398:	8c 83       	std	Y+4, r24	; 0x04
   g_positionAdc[ADM_WINDSHIELD] = EEPROMRead_word(EEADDRSS_ADM_ADC_WINDSHLD);
     39a:	88 e1       	ldi	r24, 0x18	; 24
     39c:	90 e0       	ldi	r25, 0x00	; 0
     39e:	0e 94 a8 03 	call	0x750	; 0x750 <EEPROMRead_word>
     3a2:	9f 83       	std	Y+7, r25	; 0x07
     3a4:	8e 83       	std	Y+6, r24	; 0x06

#if defined(DEBUG)
   USARTPrintString("ADM-Init\n");
     3a6:	82 e6       	ldi	r24, 0x62	; 98
     3a8:	90 e0       	ldi	r25, 0x00	; 0
   sprintf(str, "ADM-FT: [%d]\n", g_positionAdc[ADM_FEET]);
   USARTPrintString(str);
   sprintf(str, "ADM-WNDSHLD: [%d]\n\n", g_positionAdc[ADM_WINDSHIELD]);
   USARTPrintString(str);
#endif
}
     3aa:	df 91       	pop	r29
     3ac:	cf 91       	pop	r28
   g_positionAdc[ADM_FRONT_FEET] = EEPROMRead_word(EEADDRSS_ADM_ADC_FRONT_FEET);
   g_positionAdc[ADM_FEET] = EEPROMRead_word(EEADDRSS_ADM_ADC_FEET);
   g_positionAdc[ADM_WINDSHIELD] = EEPROMRead_word(EEADDRSS_ADM_ADC_WINDSHLD);

#if defined(DEBUG)
   USARTPrintString("ADM-Init\n");
     3ae:	0c 94 20 03 	jmp	0x640	; 0x640 <USARTPrintString>

000003b2 <ADMUpdatePositionInfo>:
   sprintf(str, "ADM-WNDSHLD: [%d]\n\n", g_positionAdc[ADM_WINDSHIELD]);
   USARTPrintString(str);
#endif
}

void ADMUpdatePositionInfo(pADM_POSITION_INFO positionInfo, ADM_POSITION admPosition) {
     3b2:	1f 93       	push	r17
     3b4:	cf 93       	push	r28
     3b6:	df 93       	push	r29
     3b8:	ec 01       	movw	r28, r24
     3ba:	16 2f       	mov	r17, r22

   // Read ADM potentiometer (Source)
   uint16_t adc = ADCReadAsValue(AN3_AIR_DIST_MOTOR);
     3bc:	83 e0       	ldi	r24, 0x03	; 3
     3be:	0e 94 bc 03 	call	0x778	; 0x778 <ADCReadAsValue>
   positionInfo->adcPositionSource = adc;
     3c2:	99 83       	std	Y+1, r25	; 0x01
     3c4:	88 83       	st	Y, r24
   positionInfo->adcRunningTime = 0;
     3c6:	1e 82       	std	Y+6, r1	; 0x06
     3c8:	1d 82       	std	Y+5, r1	; 0x05

   // Calculate target --->>

   // Set the ADC value for the new motor position
   positionInfo->adcPositionTarget = g_positionAdc[admPosition];
     3ca:	e1 2f       	mov	r30, r17
     3cc:	f0 e0       	ldi	r31, 0x00	; 0
     3ce:	ee 0f       	add	r30, r30
     3d0:	ff 1f       	adc	r31, r31
     3d2:	e8 5f       	subi	r30, 0xF8	; 248
     3d4:	fd 4f       	sbci	r31, 0xFD	; 253
     3d6:	20 81       	ld	r18, Z
     3d8:	31 81       	ldd	r19, Z+1	; 0x01
     3da:	3b 83       	std	Y+3, r19	; 0x03
     3dc:	2a 83       	std	Y+2, r18	; 0x02

   // Where to move?   
   if (positionInfo->adcPositionTarget < positionInfo->adcPositionSource) {
     3de:	28 17       	cp	r18, r24
     3e0:	39 07       	cpc	r19, r25
     3e2:	10 f4       	brcc	.+4      	; 0x3e8 <ADMUpdatePositionInfo+0x36>
      // Target position > Source, move Counter Clock
      positionInfo->admMove = ADM_MOVE_RIGHT;
     3e4:	81 e0       	ldi	r24, 0x01	; 1
     3e6:	04 c0       	rjmp	.+8      	; 0x3f0 <ADMUpdatePositionInfo+0x3e>
   }
   else if (positionInfo->adcPositionTarget > positionInfo->adcPositionSource) {
     3e8:	82 17       	cp	r24, r18
     3ea:	93 07       	cpc	r25, r19
     3ec:	18 f4       	brcc	.+6      	; 0x3f4 <ADMUpdatePositionInfo+0x42>
      // Target position < Source, move Counterless Clock
      positionInfo->admMove = ADM_MOVE_LEFT;
     3ee:	8f ef       	ldi	r24, 0xFF	; 255
     3f0:	8c 83       	std	Y+4, r24	; 0x04
     3f2:	01 c0       	rjmp	.+2      	; 0x3f6 <ADMUpdatePositionInfo+0x44>
   }      
   else {
      positionInfo->admMove = ADM_MOVE_NONE;
     3f4:	1c 82       	std	Y+4, r1	; 0x04
   }
}
     3f6:	df 91       	pop	r29
     3f8:	cf 91       	pop	r28
     3fa:	1f 91       	pop	r17
     3fc:	08 95       	ret

000003fe <ADMTask>:
                #define ADM_MAX_TIME_MOVING  10

   PARAMETERS: pTASK task. TASK structure
   RETURN: void
*** */
void ADMTask(pTASK task) {
     3fe:	0f 93       	push	r16
     400:	1f 93       	push	r17
     402:	cf 93       	push	r28
     404:	df 93       	push	r29
     406:	fc 01       	movw	r30, r24
   _no_operation();
}

static void ADMStop(void) {
   //                1A->LOW                2A->LOW
   ADM_PORT &= ~((1 << ADM_L293D_1A) | (1 << ADM_L293D_2A));
     408:	92 b3       	in	r25, 0x12	; 18
     40a:	97 77       	andi	r25, 0x77	; 119
     40c:	92 bb       	out	0x12, r25	; 18
   _no_operation();
     40e:	00 00       	nop
   RETURN: void
*** */
void ADMTask(pTASK task) {
   ADMStop();

   pADM_POSITION_INFO positionInfo = (pADM_POSITION_INFO) task->parameter;
     410:	c7 85       	ldd	r28, Z+15	; 0x0f
     412:	d0 89       	ldd	r29, Z+16	; 0x10
   if (positionInfo == NULL) {
     414:	20 97       	sbiw	r28, 0x00	; 0
     416:	39 f1       	breq	.+78     	; 0x466 <__stack+0x7>
     418:	8f 01       	movw	r16, r30
      return;
   }

   // Air Dist. Motor POTentiometer reading
   uint16_t ui16AdcPot = ADCReadAsValue(AN3_AIR_DIST_MOTOR);
     41a:	83 e0       	ldi	r24, 0x03	; 3
     41c:	0e 94 bc 03 	call	0x778	; 0x778 <ADCReadAsValue>

   // Left or Right??
   int16_t i16Stop = 0;
   if (positionInfo->admMove == ADM_MOVE_LEFT) {
     420:	4c 81       	ldd	r20, Y+4	; 0x04
     422:	2a 81       	ldd	r18, Y+2	; 0x02
     424:	3b 81       	ldd	r19, Y+3	; 0x03
     426:	4f 3f       	cpi	r20, 0xFF	; 255
     428:	39 f4       	brne	.+14     	; 0x438 <__DATA_REGION_LENGTH__+0x38>
      i16Stop = positionInfo->adcPositionTarget - ui16AdcPot;
     42a:	a9 01       	movw	r20, r18
     42c:	48 1b       	sub	r20, r24
     42e:	59 0b       	sbc	r21, r25
     430:	ca 01       	movw	r24, r20

//--- API Helpers ---//

static void ADMMoveLeft(void) {
   // 1A->HIGH and 2A->LOW
   ADM_PORT |=  (1 << ADM_L293D_1A);
     432:	93 9a       	sbi	0x12, 3	; 18
   ADM_PORT &= ~(1 << ADM_L293D_2A);
     434:	97 98       	cbi	0x12, 7	; 18
     436:	04 c0       	rjmp	.+8      	; 0x440 <__DATA_REGION_LENGTH__+0x40>
   if (positionInfo->admMove == ADM_MOVE_LEFT) {
      i16Stop = positionInfo->adcPositionTarget - ui16AdcPot;
      ADMMoveLeft();
   }
   else {
      i16Stop = ui16AdcPot - positionInfo->adcPositionTarget;
     438:	82 1b       	sub	r24, r18
     43a:	93 0b       	sbc	r25, r19
   _no_operation();
}

static void ADMMoveRight(void) {
   // 1A->LOW and 2A->HIGH
   ADM_PORT |=  (1 << ADM_L293D_2A);
     43c:	97 9a       	sbi	0x12, 7	; 18
   ADM_PORT &= ~(1 << ADM_L293D_1A);
     43e:	93 98       	cbi	0x12, 3	; 18
   _no_operation();
     440:	00 00       	nop
   }

   // If actual motor position +/- the new position or if time elapsed is more than 10secs 
   // this is an error "Emergency Stop!" :(
   // 2000=20s. 20s=(20s*1000ms)=20000ms/10ms=2000times, this check is called every N..ms times
   if (i16Stop <= ADM_ADC_OFFSET || (++positionInfo->adcRunningTime) >= ADM_MAX_TIME_MOVING) {
     442:	03 97       	sbiw	r24, 0x03	; 3
     444:	3c f4       	brge	.+14     	; 0x454 <__DATA_REGION_LENGTH__+0x54>
   _no_operation();
}

static void ADMStop(void) {
   //                1A->LOW                2A->LOW
   ADM_PORT &= ~((1 << ADM_L293D_1A) | (1 << ADM_L293D_2A));
     446:	82 b3       	in	r24, 0x12	; 18
     448:	87 77       	andi	r24, 0x77	; 119
     44a:	82 bb       	out	0x12, r24	; 18
   _no_operation();
     44c:	00 00       	nop
   // If actual motor position +/- the new position or if time elapsed is more than 10secs 
   // this is an error "Emergency Stop!" :(
   // 2000=20s. 20s=(20s*1000ms)=20000ms/10ms=2000times, this check is called every N..ms times
   if (i16Stop <= ADM_ADC_OFFSET || (++positionInfo->adcRunningTime) >= ADM_MAX_TIME_MOVING) {
      ADMStop();
      task->status = TS_IDLE; 
     44e:	f8 01       	movw	r30, r16
     450:	13 86       	std	Z+11, r1	; 0x0b
     452:	09 c0       	rjmp	.+18     	; 0x466 <__stack+0x7>
   }

   // If actual motor position +/- the new position or if time elapsed is more than 10secs 
   // this is an error "Emergency Stop!" :(
   // 2000=20s. 20s=(20s*1000ms)=20000ms/10ms=2000times, this check is called every N..ms times
   if (i16Stop <= ADM_ADC_OFFSET || (++positionInfo->adcRunningTime) >= ADM_MAX_TIME_MOVING) {
     454:	2d 81       	ldd	r18, Y+5	; 0x05
     456:	3e 81       	ldd	r19, Y+6	; 0x06
     458:	2f 5f       	subi	r18, 0xFF	; 255
     45a:	3f 4f       	sbci	r19, 0xFF	; 255
     45c:	3e 83       	std	Y+6, r19	; 0x06
     45e:	2d 83       	std	Y+5, r18	; 0x05
     460:	24 3c       	cpi	r18, 0xC4	; 196
     462:	39 40       	sbci	r19, 0x09	; 9
     464:	80 f7       	brcc	.-32     	; 0x446 <__DATA_REGION_LENGTH__+0x46>

#if defined(DEBUG_ADM)
   sprintf(str, "ADM-Tsk. Src: [%d] Tgt: [%d] Pot: [%d]\n", positionInfo->adcPositionSource, positionInfo->adcPositionTarget, ui16AdcPot);
   USARTPrintString(str);
#endif
}
     466:	df 91       	pop	r29
     468:	cf 91       	pop	r28
     46a:	1f 91       	pop	r17
     46c:	0f 91       	pop	r16
     46e:	08 95       	ret

00000470 <ESRInit>:
#endif                           
}

//--- API implementation ---//

void ESRInit(void) {
     470:	cf 93       	push	r28
     472:	df 93       	push	r29
// ---------------------------------------------------------------------


//--- API Helpers ---//
static inline void PWMTimerInit(void) {
   ESR_PWM_COUNTER = 0;
     474:	1c be       	out	0x3c, r1	; 60
   TCCR0B = 0x00;

   TCCR0A |= (ESR_PWM_COMPARE_OUTPUT_MODE | ESR_PWM_WAVE_FORM_MODE);  
   TCCR0B |= (ESR_CLOCK_PRESCALER | ESR_PWM_WAVE_FORM_MODE_5_7);
#else
   TCCR0  = (ESR_PWM_COMPARE_OUTPUT_MODE | ESR_PWM_WAVE_FORM_MODE | ESR_CLOCK_PRESCALER);
     476:	89 e6       	ldi	r24, 0x69	; 105
     478:	83 bf       	out	0x33, r24	; 51
void ESRInit(void) {
   // Setup PWM on Timer0 output A
   PWMTimerInit();

   // Load Timer0 PWM OCRx values for FAN motor controller
   g_speedOCR2[ESR_SPEED_0]  = 0;
     47a:	c0 e1       	ldi	r28, 0x10	; 16
     47c:	d2 e0       	ldi	r29, 0x02	; 2
     47e:	19 82       	std	Y+1, r1	; 0x01
     480:	18 82       	st	Y, r1
   g_speedOCR2[ESR_SPEED_1]  = EEPROMRead_byte(EEADDRSS_ESR_SPEED1);
     482:	8a e1       	ldi	r24, 0x1A	; 26
     484:	90 e0       	ldi	r25, 0x00	; 0
     486:	0e 94 a4 03 	call	0x748	; 0x748 <EEPROMRead_byte>
     48a:	90 e0       	ldi	r25, 0x00	; 0
     48c:	9b 83       	std	Y+3, r25	; 0x03
     48e:	8a 83       	std	Y+2, r24	; 0x02
   g_speedOCR2[ESR_SPEED_2]  = EEPROMRead_byte(EEADDRSS_ESR_SPEED2);
     490:	8b e1       	ldi	r24, 0x1B	; 27
     492:	90 e0       	ldi	r25, 0x00	; 0
     494:	0e 94 a4 03 	call	0x748	; 0x748 <EEPROMRead_byte>
     498:	90 e0       	ldi	r25, 0x00	; 0
     49a:	9d 83       	std	Y+5, r25	; 0x05
     49c:	8c 83       	std	Y+4, r24	; 0x04
   g_speedOCR2[ESR_SPEED_3]  = EEPROMRead_byte(EEADDRSS_ESR_SPEED3);
     49e:	8c e1       	ldi	r24, 0x1C	; 28
     4a0:	90 e0       	ldi	r25, 0x00	; 0
     4a2:	0e 94 a4 03 	call	0x748	; 0x748 <EEPROMRead_byte>
     4a6:	90 e0       	ldi	r25, 0x00	; 0
     4a8:	9f 83       	std	Y+7, r25	; 0x07
     4aa:	8e 83       	std	Y+6, r24	; 0x06
   g_speedOCR2[ESR_SPEED_4]  = EEPROMRead_byte(EEADDRSS_ESR_SPEED4);
     4ac:	8d e1       	ldi	r24, 0x1D	; 29
     4ae:	90 e0       	ldi	r25, 0x00	; 0
     4b0:	0e 94 a4 03 	call	0x748	; 0x748 <EEPROMRead_byte>
     4b4:	90 e0       	ldi	r25, 0x00	; 0
     4b6:	99 87       	std	Y+9, r25	; 0x09
     4b8:	88 87       	std	Y+8, r24	; 0x08
   g_speedOCR2[ESR_SPEED_5]  = EEPROMRead_byte(EEADDRSS_ESR_SPEED5);
     4ba:	8e e1       	ldi	r24, 0x1E	; 30
     4bc:	90 e0       	ldi	r25, 0x00	; 0
     4be:	0e 94 a4 03 	call	0x748	; 0x748 <EEPROMRead_byte>
     4c2:	90 e0       	ldi	r25, 0x00	; 0
     4c4:	9b 87       	std	Y+11, r25	; 0x0b
     4c6:	8a 87       	std	Y+10, r24	; 0x0a
   g_speedOCR2[ESR_SPEED_6]  = EEPROMRead_byte(EEADDRSS_ESR_SPEED6);
     4c8:	8f e1       	ldi	r24, 0x1F	; 31
     4ca:	90 e0       	ldi	r25, 0x00	; 0
     4cc:	0e 94 a4 03 	call	0x748	; 0x748 <EEPROMRead_byte>
     4d0:	90 e0       	ldi	r25, 0x00	; 0
     4d2:	9d 87       	std	Y+13, r25	; 0x0d
     4d4:	8c 87       	std	Y+12, r24	; 0x0c
   g_speedOCR2[ESR_SPEED_7]  = EEPROMRead_byte(EEADDRSS_ESR_SPEED7);
     4d6:	80 e2       	ldi	r24, 0x20	; 32
     4d8:	90 e0       	ldi	r25, 0x00	; 0
     4da:	0e 94 a4 03 	call	0x748	; 0x748 <EEPROMRead_byte>
     4de:	90 e0       	ldi	r25, 0x00	; 0
     4e0:	9f 87       	std	Y+15, r25	; 0x0f
     4e2:	8e 87       	std	Y+14, r24	; 0x0e
   g_speedOCR2[ESR_SPEED_8]  = EEPROMRead_byte(EEADDRSS_ESR_SPEED8);
     4e4:	81 e2       	ldi	r24, 0x21	; 33
     4e6:	90 e0       	ldi	r25, 0x00	; 0
     4e8:	0e 94 a4 03 	call	0x748	; 0x748 <EEPROMRead_byte>
     4ec:	90 e0       	ldi	r25, 0x00	; 0
     4ee:	99 8b       	std	Y+17, r25	; 0x11
     4f0:	88 8b       	std	Y+16, r24	; 0x10
   g_speedOCR2[ESR_SPEED_9]  = EEPROMRead_byte(EEADDRSS_ESR_SPEED9);
     4f2:	82 e2       	ldi	r24, 0x22	; 34
     4f4:	90 e0       	ldi	r25, 0x00	; 0
     4f6:	0e 94 a4 03 	call	0x748	; 0x748 <EEPROMRead_byte>
     4fa:	90 e0       	ldi	r25, 0x00	; 0
     4fc:	9b 8b       	std	Y+19, r25	; 0x13
     4fe:	8a 8b       	std	Y+18, r24	; 0x12
   g_speedOCR2[ESR_SPEED_10] = EEPROMRead_byte(EEADDRSS_ESR_SPEED10);
     500:	83 e2       	ldi	r24, 0x23	; 35
     502:	90 e0       	ldi	r25, 0x00	; 0
     504:	0e 94 a4 03 	call	0x748	; 0x748 <EEPROMRead_byte>
     508:	90 e0       	ldi	r25, 0x00	; 0
     50a:	9d 8b       	std	Y+21, r25	; 0x15
     50c:	8c 8b       	std	Y+20, r24	; 0x14
   g_speedOCR2[ESR_SPEED_11] = EEPROMRead_byte(EEADDRSS_ESR_SPEED11);
     50e:	84 e2       	ldi	r24, 0x24	; 36
     510:	90 e0       	ldi	r25, 0x00	; 0
     512:	0e 94 a4 03 	call	0x748	; 0x748 <EEPROMRead_byte>
     516:	90 e0       	ldi	r25, 0x00	; 0
     518:	9f 8b       	std	Y+23, r25	; 0x17
     51a:	8e 8b       	std	Y+22, r24	; 0x16
   g_speedOCR2[ESR_SPEED_12] = EEPROMRead_byte(EEADDRSS_ESR_SPEED12);
     51c:	85 e2       	ldi	r24, 0x25	; 37
     51e:	90 e0       	ldi	r25, 0x00	; 0
     520:	0e 94 a4 03 	call	0x748	; 0x748 <EEPROMRead_byte>
     524:	90 e0       	ldi	r25, 0x00	; 0
     526:	99 8f       	std	Y+25, r25	; 0x19
     528:	88 8f       	std	Y+24, r24	; 0x18
   g_speedOCR2[ESR_SPEED_13] = EEPROMRead_byte(EEADDRSS_ESR_SPEED13);
     52a:	86 e2       	ldi	r24, 0x26	; 38
     52c:	90 e0       	ldi	r25, 0x00	; 0
     52e:	0e 94 a4 03 	call	0x748	; 0x748 <EEPROMRead_byte>
     532:	90 e0       	ldi	r25, 0x00	; 0
     534:	9b 8f       	std	Y+27, r25	; 0x1b
     536:	8a 8f       	std	Y+26, r24	; 0x1a
   g_speedOCR2[ESR_SPEED_14] = EEPROMRead_byte(EEADDRSS_ESR_SPEED14);
     538:	87 e2       	ldi	r24, 0x27	; 39
     53a:	90 e0       	ldi	r25, 0x00	; 0
     53c:	0e 94 a4 03 	call	0x748	; 0x748 <EEPROMRead_byte>
     540:	90 e0       	ldi	r25, 0x00	; 0
     542:	9d 8f       	std	Y+29, r25	; 0x1d
     544:	8c 8f       	std	Y+28, r24	; 0x1c
   g_speedOCR2[ESR_SPEED_15] = EEPROMRead_byte(EEADDRSS_ESR_SPEED15);
     546:	88 e2       	ldi	r24, 0x28	; 40
     548:	90 e0       	ldi	r25, 0x00	; 0
     54a:	0e 94 a4 03 	call	0x748	; 0x748 <EEPROMRead_byte>
     54e:	90 e0       	ldi	r25, 0x00	; 0
     550:	9f 8f       	std	Y+31, r25	; 0x1f
     552:	8e 8f       	std	Y+30, r24	; 0x1e

#if defined(DEBUG)   
   USARTPrintString("ESR-Init\n");
     554:	8c e6       	ldi	r24, 0x6C	; 108
     556:	90 e0       	ldi	r25, 0x00	; 0
     558:	0e 94 20 03 	call	0x640	; 0x640 <USARTPrintString>
      USARTPrintString(str);
   }
#endif

   // DDRx=1, PIN is output for PWM
   ESR_DDR |= ESR_PWM_OUTPUT_CHANNEL;
     55c:	bb 9a       	sbi	0x17, 3	; 23
}
     55e:	df 91       	pop	r29
     560:	cf 91       	pop	r28
     562:	08 95       	ret

00000564 <ESRUpdateSpeedInfo>:

void ESRUpdateSpeedInfo(pESR_SPEED_INFO speedInfo, uint8_t speed) {
     564:	dc 01       	movw	r26, r24

   // Calculate SOURCE --->>
   speedInfo->SpeedSource = ESR_PWM_COUNTER;
     566:	9c b7       	in	r25, 0x3c	; 60
     568:	9c 93       	st	X, r25

   // Calculate TARGET --->>

   // Set the ESR OCR2x value for the new PWM duty cycle for blower speed
   speedInfo->SpeedTarget = g_speedOCR2[speed];
     56a:	e6 2f       	mov	r30, r22
     56c:	f0 e0       	ldi	r31, 0x00	; 0
     56e:	ee 0f       	add	r30, r30
     570:	ff 1f       	adc	r31, r31
     572:	e0 5f       	subi	r30, 0xF0	; 240
     574:	fd 4f       	sbci	r31, 0xFD	; 253
     576:	80 81       	ld	r24, Z
     578:	11 96       	adiw	r26, 0x01	; 1
     57a:	8c 93       	st	X, r24
     57c:	11 97       	sbiw	r26, 0x01	; 1

   // Where to speed up<->down?
   speedInfo->esrMove = ESR_SPEED_NONE;
   if (speedInfo->SpeedTarget < speedInfo->SpeedSource) {
     57e:	89 17       	cp	r24, r25
     580:	10 f4       	brcc	.+4      	; 0x586 <ESRUpdateSpeedInfo+0x22>
      speedInfo->esrMove = ESR_SPEED_DOWN;
     582:	81 e0       	ldi	r24, 0x01	; 1
     584:	06 c0       	rjmp	.+12     	; 0x592 <ESRUpdateSpeedInfo+0x2e>
   }
   else if (speedInfo->SpeedTarget > speedInfo->SpeedSource) {
     586:	98 17       	cp	r25, r24
     588:	18 f0       	brcs	.+6      	; 0x590 <ESRUpdateSpeedInfo+0x2c>

   // Set the ESR OCR2x value for the new PWM duty cycle for blower speed
   speedInfo->SpeedTarget = g_speedOCR2[speed];

   // Where to speed up<->down?
   speedInfo->esrMove = ESR_SPEED_NONE;
     58a:	12 96       	adiw	r26, 0x02	; 2
     58c:	1c 92       	st	X, r1
     58e:	08 95       	ret
   if (speedInfo->SpeedTarget < speedInfo->SpeedSource) {
      speedInfo->esrMove = ESR_SPEED_DOWN;
   }
   else if (speedInfo->SpeedTarget > speedInfo->SpeedSource) {
      speedInfo->esrMove = ESR_SPEED_UP;
     590:	8f ef       	ldi	r24, 0xFF	; 255
     592:	12 96       	adiw	r26, 0x02	; 2
     594:	8c 93       	st	X, r24
     596:	08 95       	ret

00000598 <ESRTask>:
                #define ADM_MAX_TIME_MOVING  10

   PARAMETERS: pTASK task. TASK structure
   RETURN: void
*** */
void ESRTask(pTASK task) {
     598:	dc 01       	movw	r26, r24

   pESR_SPEED_INFO esrSpeedInfo = (pESR_SPEED_INFO) task->parameter;
     59a:	1f 96       	adiw	r26, 0x0f	; 15
     59c:	ed 91       	ld	r30, X+
     59e:	fc 91       	ld	r31, X
     5a0:	50 97       	sbiw	r26, 0x10	; 16
   if (esrSpeedInfo == NULL) {
     5a2:	30 97       	sbiw	r30, 0x00	; 0
     5a4:	81 f0       	breq	.+32     	; 0x5c6 <ESRTask+0x2e>
      return;
   }

   if (esrSpeedInfo->esrMove == ESR_SPEED_UP) {
     5a6:	82 81       	ldd	r24, Z+2	; 0x02
     5a8:	90 81       	ld	r25, Z
     5aa:	8f 3f       	cpi	r24, 0xFF	; 255
     5ac:	11 f4       	brne	.+4      	; 0x5b2 <ESRTask+0x1a>
      esrSpeedInfo->SpeedSource++;
     5ae:	9f 5f       	subi	r25, 0xFF	; 255
     5b0:	01 c0       	rjmp	.+2      	; 0x5b4 <ESRTask+0x1c>
   }
   else {
      esrSpeedInfo->SpeedSource--;
     5b2:	91 50       	subi	r25, 0x01	; 1
     5b4:	90 83       	st	Z, r25
   }

   // If we reach the target speed, then, stop task
   if (esrSpeedInfo->SpeedSource == esrSpeedInfo->SpeedTarget) {
     5b6:	90 81       	ld	r25, Z
     5b8:	81 81       	ldd	r24, Z+1	; 0x01
     5ba:	98 13       	cpse	r25, r24
     5bc:	02 c0       	rjmp	.+4      	; 0x5c2 <ESRTask+0x2a>
      task->status = TS_IDLE;
     5be:	1b 96       	adiw	r26, 0x0b	; 11
     5c0:	1c 92       	st	X, r1
   }

   // New PWM Duty Cycle
   ESR_PWM_COUNTER = esrSpeedInfo->SpeedSource;
     5c2:	80 81       	ld	r24, Z
     5c4:	8c bf       	out	0x3c, r24	; 60
     5c6:	08 95       	ret

000005c8 <LampsSetState>:
   PARAMETERS: LAMPS_STATE
   RETURN: void
*** */
void LampsSetState(LAMPS_STATE lampsState) {

   if ((lampsState & LAMP_TEMPERATURE_ON) == LAMP_TEMPERATURE_ON) {
     5c8:	80 fd       	sbrc	r24, 0
      LCD_LAMP_TEMPR_PORT |= (1 << LCD_LAMP_TEMPERATURE);
     5ca:	90 9a       	sbi	0x12, 0	; 18
   }

   if ((lampsState & LAMP_TEMPERATURE_OFF) == LAMP_TEMPERATURE_OFF) {
     5cc:	81 fd       	sbrc	r24, 1
      LCD_LAMP_TEMPR_PORT &= ~(1 << LCD_LAMP_TEMPERATURE);
     5ce:	90 98       	cbi	0x12, 0	; 18
   }

   if ((lampsState & LAMP_SPEED_ON) == LAMP_SPEED_ON) {
     5d0:	82 fd       	sbrc	r24, 2
      LCD_LAMP_SPEED_PORT |= (1 << LCD_LAMP_SPEED);
     5d2:	c4 9a       	sbi	0x18, 4	; 24
   }

   if ((lampsState & LAMP_SPEED_OFF) == LAMP_SPEED_OFF) {
     5d4:	83 fd       	sbrc	r24, 3
      LCD_LAMP_SPEED_PORT &= ~(1 << LCD_LAMP_SPEED);
     5d6:	c4 98       	cbi	0x18, 4	; 24
     5d8:	08 95       	ret

000005da <LampsInit>:
   RETURN: void
*** */
void LampsInit(void) {
   
   // Set LCD lamps Port low. T1:T2->Base Temperature and Speed LCD lamp
   LCD_LAMP_TEMPR_PORT &= ~(1 << LCD_LAMP_TEMPERATURE);
     5da:	90 98       	cbi	0x12, 0	; 18
   LCD_LAMP_SPEED_PORT &= ~(1 << LCD_LAMP_SPEED);
     5dc:	c4 98       	cbi	0x18, 4	; 24

   // Set LCD lamps port DDRx=1 as output
   LCD_LAMP_TEMPR_DDR |= (1 << LCD_LAMP_TEMPERATURE);
     5de:	88 9a       	sbi	0x11, 0	; 17
   LCD_LAMP_SPEED_DDR |= (1 << LCD_LAMP_SPEED);
     5e0:	bc 9a       	sbi	0x17, 4	; 23

   LampsSetState((LAMP_TEMPERATURE_OFF | LAMP_SPEED_OFF));
     5e2:	8a e0       	ldi	r24, 0x0A	; 10
     5e4:	0e 94 e4 02 	call	0x5c8	; 0x5c8 <LampsSetState>

#if defined(DEBUG)
   USARTPrintString("LMPS-Init\n");
     5e8:	86 e7       	ldi	r24, 0x76	; 118
     5ea:	90 e0       	ldi	r25, 0x00	; 0
     5ec:	0c 94 20 03 	jmp	0x640	; 0x640 <USARTPrintString>

000005f0 <TLPSInit>:
   PARAMETERS: void
   RETURN: void
*** */
void TLPSInit(void) {
   // Input HIGH H-Bridge L293D Output = HiZ
   TLPS_PORT |= (1 << TLPS_L293D_3A);
     5f0:	92 9a       	sbi	0x12, 2	; 18

   // DDRx=1, PIN is output
   TLPS_DDR |= (1 << TLPS_L293D_3A);
     5f2:	8a 9a       	sbi	0x11, 2	; 17

#if defined(DEBUG)
   USARTPrintString("TLPS-Init\n");
     5f4:	81 e8       	ldi	r24, 0x81	; 129
     5f6:	90 e0       	ldi	r25, 0x00	; 0
     5f8:	0c 94 20 03 	jmp	0x640	; 0x640 <USARTPrintString>

000005fc <TLPSSetState>:
   PARAMETERS: TLPS_STATE state. Three Level Pressure Switch state
   RETURN: void
*** */
void TLPSSetState(TLPS_STATE state) {
   // ON/OFF L293D output
   if (state == TLPSS_ON) {
     5fc:	81 30       	cpi	r24, 0x01	; 1
     5fe:	11 f4       	brne	.+4      	; 0x604 <TLPSSetState+0x8>
      TLPS_PORT &= ~(1 << TLPS_L293D_3A);
     600:	92 98       	cbi	0x12, 2	; 18
     602:	01 c0       	rjmp	.+2      	; 0x606 <TLPSSetState+0xa>
   }
   else {
      TLPS_PORT |= (1 << TLPS_L293D_3A);
     604:	92 9a       	sbi	0x12, 2	; 18
   }

   _no_operation();
     606:	00 00       	nop
     608:	08 95       	ret

0000060a <USARTInit>:
   // [UCSRnB:1] has the 9-bit in the bit RXB8n, if is set=1, then add the 9-bit in the result
   ui8HIGH = (ui8HIGH >> 1) & 0x01;

   //UDRn with LSB, high with 9-bit??
   return ((ui8HIGH << 8) | ui8LOW);   
}
     60a:	59 98       	cbi	0x0b, 1	; 11
     60c:	10 bc       	out	0x20, r1	; 32
     60e:	9c e0       	ldi	r25, 0x0C	; 12
     610:	99 b9       	out	0x09, r25	; 9
     612:	53 9a       	sbi	0x0a, 3	; 10
     614:	86 2b       	or	r24, r22
     616:	41 30       	cpi	r20, 0x01	; 1
     618:	09 f4       	brne	.+2      	; 0x61c <USARTInit+0x12>
     61a:	88 60       	ori	r24, 0x08	; 8
     61c:	22 23       	and	r18, r18
     61e:	31 f0       	breq	.+12     	; 0x62c <USARTInit+0x22>
     620:	2e 30       	cpi	r18, 0x0E	; 14
     622:	19 f4       	brne	.+6      	; 0x62a <USARTInit+0x20>
     624:	52 9a       	sbi	0x0a, 2	; 10
     626:	86 60       	ori	r24, 0x06	; 6
     628:	01 c0       	rjmp	.+2      	; 0x62c <USARTInit+0x22>
     62a:	82 2b       	or	r24, r18
     62c:	80 68       	ori	r24, 0x80	; 128
     62e:	80 bd       	out	0x20, r24	; 32
     630:	08 95       	ret

00000632 <USARTTransmitData>:
     632:	5d 9b       	sbis	0x0b, 5	; 11
     634:	fe cf       	rjmp	.-4      	; 0x632 <USARTTransmitData>
     636:	50 98       	cbi	0x0a, 0	; 10
     638:	90 fd       	sbrc	r25, 0
     63a:	50 9a       	sbi	0x0a, 0	; 10
     63c:	8c b9       	out	0x0c, r24	; 12
     63e:	08 95       	ret

00000640 <USARTPrintString>:
   DESCRIPTION: Receive data frame for USART channel

   PARAMETERS: void
   RETURN: uint16_t ui16Data. 5 to 9 bit of data to receive
*** */
void USARTPrintString(char const chrStr[]) {
     640:	0f 93       	push	r16
     642:	1f 93       	push	r17
     644:	cf 93       	push	r28
     646:	df 93       	push	r29

   // If empty string = '\0'
   if (!*chrStr) {
     648:	fc 01       	movw	r30, r24
     64a:	20 81       	ld	r18, Z
     64c:	22 23       	and	r18, r18
     64e:	91 f0       	breq	.+36     	; 0x674 <USARTPrintString+0x34>
     650:	ec 01       	movw	r28, r24
     652:	8e 01       	movw	r16, r28
      return;
   }

   while (*chrStr) {
     654:	88 81       	ld	r24, Y
     656:	88 23       	and	r24, r24
     658:	69 f0       	breq	.+26     	; 0x674 <USARTPrintString+0x34>
      // If find the CR send first one LF. Windows/UNIX??
      if (*chrStr == '\n') {
     65a:	8a 30       	cpi	r24, 0x0A	; 10
     65c:	21 f4       	brne	.+8      	; 0x666 <USARTPrintString+0x26>
         USARTTransmitData('\r');
     65e:	8d e0       	ldi	r24, 0x0D	; 13
     660:	90 e0       	ldi	r25, 0x00	; 0
     662:	0e 94 19 03 	call	0x632	; 0x632 <USARTTransmitData>
     666:	21 96       	adiw	r28, 0x01	; 1
      }

      USARTTransmitData(*chrStr++);
     668:	f8 01       	movw	r30, r16
     66a:	80 81       	ld	r24, Z
     66c:	90 e0       	ldi	r25, 0x00	; 0
     66e:	0e 94 19 03 	call	0x632	; 0x632 <USARTTransmitData>
     672:	ef cf       	rjmp	.-34     	; 0x652 <USARTPrintString+0x12>
   }
}
     674:	df 91       	pop	r29
     676:	cf 91       	pop	r28
     678:	1f 91       	pop	r17
     67a:	0f 91       	pop	r16
     67c:	08 95       	ret

0000067e <LCDInit>:
   PARAMETERS: void
   RETURN: void
*** */
void LCDInit(void) {
   // Set LCD Port low
   LCD_PORT &= ~(LCD_MASKS);           // PCF2112CT C-Bus Lines
     67e:	88 b3       	in	r24, 0x18	; 24
     680:	88 7f       	andi	r24, 0xF8	; 248
     682:	88 bb       	out	0x18, r24	; 24

   // Set LCD port DDRx=1 as output
   LCD_DDR |= LCD_MASKS;               // Set LCD PORT has output. PCF2112CT C-Bus Lines
     684:	87 b3       	in	r24, 0x17	; 23
     686:	87 60       	ori	r24, 0x07	; 7
     688:	87 bb       	out	0x17, r24	; 23

#if defined(DEBUG)
   USARTPrintString("LCD-Init\n");
     68a:	8c e8       	ldi	r24, 0x8C	; 140
     68c:	90 e0       	ldi	r25, 0x00	; 0
     68e:	0c 94 20 03 	jmp	0x640	; 0x640 <USARTPrintString>

00000692 <LCDSendData>:

               LSB                                                    MSB
   PARAMETERS: uint8_t byte1, uint8_t byte2, uint8_t byte3, uint8_t byte4
   RETURN: void
*** */
void LCDSendData(uint8_t byte1, uint8_t byte2, uint8_t  byte3, uint8_t byte4) {
     692:	cf 92       	push	r12
     694:	df 92       	push	r13
     696:	ef 92       	push	r14
     698:	ff 92       	push	r15
     69a:	0f 93       	push	r16
     69c:	1f 93       	push	r17
     69e:	52 2f       	mov	r21, r18
   LCDSendDataAsm(PACK32(byte4, byte3, byte2, byte1));
     6a0:	06 2f       	mov	r16, r22
     6a2:	10 e0       	ldi	r17, 0x00	; 0
     6a4:	20 e0       	ldi	r18, 0x00	; 0
     6a6:	30 e0       	ldi	r19, 0x00	; 0
     6a8:	32 2f       	mov	r19, r18
     6aa:	21 2f       	mov	r18, r17
     6ac:	10 2f       	mov	r17, r16
     6ae:	00 27       	eor	r16, r16
     6b0:	68 01       	movw	r12, r16
     6b2:	79 01       	movw	r14, r18
     6b4:	c8 2a       	or	r12, r24
     6b6:	d7 01       	movw	r26, r14
     6b8:	c6 01       	movw	r24, r12
     6ba:	a4 2b       	or	r26, r20
     6bc:	bc 01       	movw	r22, r24
     6be:	cd 01       	movw	r24, r26
     6c0:	95 2b       	or	r25, r21
}
     6c2:	1f 91       	pop	r17
     6c4:	0f 91       	pop	r16
     6c6:	ff 90       	pop	r15
     6c8:	ef 90       	pop	r14
     6ca:	df 90       	pop	r13
     6cc:	cf 90       	pop	r12
               LSB                                                    MSB
   PARAMETERS: uint8_t byte1, uint8_t byte2, uint8_t byte3, uint8_t byte4
   RETURN: void
*** */
void LCDSendData(uint8_t byte1, uint8_t byte2, uint8_t  byte3, uint8_t byte4) {
   LCDSendDataAsm(PACK32(byte4, byte3, byte2, byte1));
     6ce:	0c 94 58 01 	jmp	0x2b0	; 0x2b0 <LCDSendDataAsm>

000006d2 <LCDClear>:
     6d2:	60 e0       	ldi	r22, 0x00	; 0
     6d4:	70 e0       	ldi	r23, 0x00	; 0
     6d6:	cb 01       	movw	r24, r22
     6d8:	0c 94 58 01 	jmp	0x2b0	; 0x2b0 <LCDSendDataAsm>

000006dc <LCDNumberToDigit>:
   RETURN: uint8_t. LCD Digit Code
*** */
uint8_t LCDNumberToDigit(uint8_t number) {
   // The g_lcdNumbers is ordered from 0 to 9, because of that any number from 0..9 is the index from 
   // g_lcdNumbers array
   return pgm_read_byte(&g_lcdNumbers[number]);
     6dc:	e8 2f       	mov	r30, r24
     6de:	f0 e0       	ldi	r31, 0x00	; 0
     6e0:	ea 53       	subi	r30, 0x3A	; 58
     6e2:	fe 4f       	sbci	r31, 0xFE	; 254
     6e4:	84 91       	lpm	r24, Z
}
     6e6:	08 95       	ret

000006e8 <LEDSendData>:

               LSB                                                    MSB
   PARAMETERS: uint8_t byte1, uint8_t byte2, uint8_t byte3, uint8_t byte4
   RETURN: void
*** */
void LEDSendData(uint8_t byte1, uint8_t byte2, uint8_t byte3, uint8_t byte4) {
     6e8:	cf 92       	push	r12
     6ea:	df 92       	push	r13
     6ec:	ef 92       	push	r14
     6ee:	ff 92       	push	r15
     6f0:	0f 93       	push	r16
     6f2:	1f 93       	push	r17
     6f4:	52 2f       	mov	r21, r18
   LEDSendDataAsm(PACK32(byte4, byte3, byte2, byte1));
     6f6:	06 2f       	mov	r16, r22
     6f8:	10 e0       	ldi	r17, 0x00	; 0
     6fa:	20 e0       	ldi	r18, 0x00	; 0
     6fc:	30 e0       	ldi	r19, 0x00	; 0
     6fe:	32 2f       	mov	r19, r18
     700:	21 2f       	mov	r18, r17
     702:	10 2f       	mov	r17, r16
     704:	00 27       	eor	r16, r16
     706:	68 01       	movw	r12, r16
     708:	79 01       	movw	r14, r18
     70a:	c8 2a       	or	r12, r24
     70c:	d7 01       	movw	r26, r14
     70e:	c6 01       	movw	r24, r12
     710:	a4 2b       	or	r26, r20
     712:	bc 01       	movw	r22, r24
     714:	cd 01       	movw	r24, r26
     716:	95 2b       	or	r25, r21
}
     718:	1f 91       	pop	r17
     71a:	0f 91       	pop	r16
     71c:	ff 90       	pop	r15
     71e:	ef 90       	pop	r14
     720:	df 90       	pop	r13
     722:	cf 90       	pop	r12
               LSB                                                    MSB
   PARAMETERS: uint8_t byte1, uint8_t byte2, uint8_t byte3, uint8_t byte4
   RETURN: void
*** */
void LEDSendData(uint8_t byte1, uint8_t byte2, uint8_t byte3, uint8_t byte4) {
   LEDSendDataAsm(PACK32(byte4, byte3, byte2, byte1));
     724:	0c 94 07 01 	jmp	0x20e	; 0x20e <LEDSendDataAsm>

00000728 <LEDInit>:
   PARAMETERS: void
   RETURN: void
*** */
void LEDInit(void) {
   // Set LED Port low
   LED_PORT &= ~LED_MASKS;                //MM5481x serial data lines
     728:	82 b3       	in	r24, 0x12	; 18
     72a:	8f 78       	andi	r24, 0x8F	; 143
     72c:	82 bb       	out	0x12, r24	; 18
   LED_PORT |= (1 << LED_DATA_ENABLE);    //Set HIGH MM5481x.DATA_ENABLE active low
     72e:	96 9a       	sbi	0x12, 6	; 18

   // Set LCD port DDRx=1 as output
   LED_DDR |= LED_MASKS;                  //Set LED PORT has output. MM5481x serial data lines
     730:	81 b3       	in	r24, 0x11	; 17
     732:	80 67       	ori	r24, 0x70	; 112
     734:	81 bb       	out	0x11, r24	; 17

#if defined(DEBUG)
    USARTPrintString("LED-Init\n");
     736:	86 e9       	ldi	r24, 0x96	; 150
     738:	90 e0       	ldi	r25, 0x00	; 0
     73a:	0c 94 20 03 	jmp	0x640	; 0x640 <USARTPrintString>

0000073e <LEDClear>:
               LSB                                                    MSB
   PARAMETERS: uint8_t byte1, uint8_t byte2, uint8_t byte3, uint8_t byte4
   RETURN: void
*** */
void LEDSendData(uint8_t byte1, uint8_t byte2, uint8_t byte3, uint8_t byte4) {
   LEDSendDataAsm(PACK32(byte4, byte3, byte2, byte1));
     73e:	60 e0       	ldi	r22, 0x00	; 0
     740:	70 e0       	ldi	r23, 0x00	; 0
     742:	cb 01       	movw	r24, r22
     744:	0c 94 07 01 	jmp	0x20e	; 0x20e <LEDSendDataAsm>

00000748 <EEPROMRead_byte>:

   PARAMETERS: uint8_t address: eeprom memory start address
   RETURN: float: eeprom data
*** */
uint8_t EEPROMRead_byte(uint16_t address) {
   return eeprom_read_byte((uint8_t *) address);
     748:	0c 94 49 13 	jmp	0x2692	; 0x2692 <eeprom_read_byte>

0000074c <EEPROMWrite_byte>:
               uint8_t value: Value to write into eeprom

   RETURN: void
*** */
void EEPROMWrite_byte(uint16_t address, uint8_t value) {
   eeprom_update_byte((uint8_t *) address, value);
     74c:	0c 94 57 13 	jmp	0x26ae	; 0x26ae <eeprom_update_byte>

00000750 <EEPROMRead_word>:

   PARAMETERS: uint16_t address: eeprom memory start address
   RETURN: float: eeprom data
*** */
uint16_t EEPROMRead_word(uint16_t address) {
   return eeprom_read_word((uint16_t *) address);
     750:	0c 94 51 13 	jmp	0x26a2	; 0x26a2 <eeprom_read_word>

00000754 <ADCInit>:
*** */
void ADCSetLeftAdjustResult(ADC_LEFT_ADJUST_RESULT leftAdjsRes) {
   // Default: Right Adjust 
   ADMUX &= ~(ADC_LEFT_ADJUST_RESULT_MASK);
   if (leftAdjsRes == ADC_LAR_LEFT) {
      ADMUX |= (1 << ADLAR);
     754:	97 b1       	in	r25, 0x07	; 7
     756:	9f 73       	andi	r25, 0x3F	; 63
     758:	97 b9       	out	0x07, r25	; 7
     75a:	66 23       	and	r22, r22
     75c:	19 f0       	breq	.+6      	; 0x764 <ADCInit+0x10>
     75e:	97 b1       	in	r25, 0x07	; 7
     760:	69 2b       	or	r22, r25
     762:	67 b9       	out	0x07, r22	; 7
     764:	96 b1       	in	r25, 0x06	; 6
     766:	98 7f       	andi	r25, 0xF8	; 248
     768:	96 b9       	out	0x06, r25	; 6
     76a:	96 b1       	in	r25, 0x06	; 6
     76c:	89 2b       	or	r24, r25
     76e:	86 b9       	out	0x06, r24	; 6
     770:	80 ea       	ldi	r24, 0xA0	; 160
     772:	90 e0       	ldi	r25, 0x00	; 0
     774:	0c 94 20 03 	jmp	0x640	; 0x640 <USARTPrintString>

00000778 <ADCReadAsValue>:
   // Enable Power Reduction ADC in PRR register
   PRR &= ~(1 << PRADC);
#endif

   // NOTE: Will take 25 ADC clock cycles settled first time
   ADCSRA |= (1 << ADEN);
     778:	37 9a       	sbi	0x06, 7	; 6
	ADCSRA &= ~(1 << ADIE);
}

static inline void ADCSetChannel(ADC_CHANNEL channel) {         
   // Wait for any conversion in progress (ADSC=1 become ADCS=0), before change to a new channel
   loop_until_bit_is_clear(ADCSRA, ADSC);
     77a:	36 99       	sbic	0x06, 6	; 6
     77c:	fe cf       	rjmp	.-4      	; 0x77a <ADCReadAsValue+0x2>

   // NOTE: We need to set ADMUX register, to do that we keep the higher nibble (& 0xF0) and set the new ADC channel, 
   //       (channel & 0x0F) to stay in ADC7..ADC0.
   //       For read ADC channel ADC8 (Temperature), 1.1V and GND, use special functions
   ADMUX = ((ADMUX & 0xF0) | (channel & ADC_CHANNEL_MASK));
     77e:	97 b1       	in	r25, 0x07	; 7
     780:	90 7f       	andi	r25, 0xF0	; 240
     782:	8f 70       	andi	r24, 0x0F	; 15
     784:	89 2b       	or	r24, r25
     786:	87 b9       	out	0x07, r24	; 7
     788:	2a e0       	ldi	r18, 0x0A	; 10
uint16_t ADCReadAsValue(ADC_CHANNEL channel) {
   ADCEnable();
   ADCSetChannel(channel);
   
   // Consecutive readings and average samples conversion
   uint16_t adc = 0;
     78a:	80 e0       	ldi	r24, 0x00	; 0
     78c:	90 e0       	ldi	r25, 0x00	; 0

   ADCSRA &= ~(1 << ADEN);
}

static inline void ADCStartConversion(void) {
   ADCSRA |= (1 << ADSC);  //ADC = 0;
     78e:	36 9a       	sbi	0x06, 6	; 6
*** */
static uint16_t ADCRead10BitValue(void) {   
   ADCStartConversion();

   // Conversion in progress, ADSC=1, wait for ADCS=0
   loop_until_bit_is_clear(ADCSRA, ADSC);
     790:	36 99       	sbic	0x06, 6	; 6
     792:	fe cf       	rjmp	.-4      	; 0x790 <ADCReadAsValue+0x18>

#if defined(ADC)
   return ADC;
     794:	44 b1       	in	r20, 0x04	; 4
     796:	55 b1       	in	r21, 0x05	; 5
   for (uint8_t i = 0; i < ADC_SAMPLES; i++) {

      #ifdef ADC_8BITS_RESOLUTION
         adc += ADCRead8BitValue();
      #else
         adc += ADCRead10BitValue();
     798:	84 0f       	add	r24, r20
     79a:	95 1f       	adc	r25, r21
	#else
		//round up by default
		__ticks_dc = (uint32_t)(ceil(fabs(__tmp)));
	#endif

	__builtin_avr_delay_cycles(__ticks_dc);
     79c:	3d e0       	ldi	r19, 0x0D	; 13
     79e:	3a 95       	dec	r19
     7a0:	f1 f7       	brne	.-4      	; 0x79e <ADCReadAsValue+0x26>
     7a2:	00 00       	nop
     7a4:	21 50       	subi	r18, 0x01	; 1
   ADCEnable();
   ADCSetChannel(channel);
   
   // Consecutive readings and average samples conversion
   uint16_t adc = 0;
   for (uint8_t i = 0; i < ADC_SAMPLES; i++) {
     7a6:	99 f7       	brne	.-26     	; 0x78e <ADCReadAsValue+0x16>
#if defined(PRR)
   // Disable Power Reduction ADC in PRR register
   PRR |= (1 << PRADC);
#endif

   ADCSRA &= ~(1 << ADEN);
     7a8:	37 98       	cbi	0x06, 7	; 6
      _delay_us(ADC_READ_DELAY);
   }

   ADCDisable();

   return (adc / ADC_SAMPLES);
     7aa:	6a e0       	ldi	r22, 0x0A	; 10
     7ac:	70 e0       	ldi	r23, 0x00	; 0
     7ae:	0e 94 82 0b 	call	0x1704	; 0x1704 <__udivmodhi4>
     7b2:	cb 01       	movw	r24, r22
}
     7b4:	08 95       	ret

000007b6 <ADCReadAsVoltage>:
   // Microchip AppNotes-00002447A.pdf
   // Vcc_value = (0x400 * 1.1) / (ADC_RES_L + ADC_RES_H * 0x100)
   //              0x400 = 1024
   //              1.1 = Vref
   //              ADC_RES_L + ADC_RES_H * 0x100 = ADC value
   uint16_t adc = ADCReadAsValue(channel);
     7b6:	0e 94 bc 03 	call	0x778	; 0x778 <ADCReadAsValue>

   return (ADC_VREF_VALUE * ADC_RESOLUTION) / adc;
     7ba:	bc 01       	movw	r22, r24
     7bc:	80 e0       	ldi	r24, 0x00	; 0
     7be:	90 e0       	ldi	r25, 0x00	; 0
     7c0:	0e 94 b1 0c 	call	0x1962	; 0x1962 <__floatunsisf>
     7c4:	9b 01       	movw	r18, r22
     7c6:	ac 01       	movw	r20, r24
     7c8:	60 e0       	ldi	r22, 0x00	; 0
     7ca:	70 e0       	ldi	r23, 0x00	; 0
     7cc:	80 ea       	ldi	r24, 0xA0	; 160
     7ce:	95 e4       	ldi	r25, 0x45	; 69
     7d0:	0e 94 09 0c 	call	0x1812	; 0x1812 <__divsf3>
}
     7d4:	08 95       	ret

000007d6 <BoardInit>:

   // define DEBUG_TASK: For task operation debug
   // define DEBUG: For SignalR operation debug
   #if defined DEBUG || DEBUG_TASK
      // Baud: 38.4k. Frame 8N1 (8bit, No Parity, 1 Bit Stop)
      USARTInit(UOM_ASYNCHRONOUS, UPM_DISABLE, USB_2BIT, UCSZ_8BIT);
     7d6:	26 e0       	ldi	r18, 0x06	; 6
     7d8:	41 e0       	ldi	r20, 0x01	; 1
     7da:	60 e0       	ldi	r22, 0x00	; 0
     7dc:	80 e0       	ldi	r24, 0x00	; 0
     7de:	0e 94 05 03 	call	0x60a	; 0x60a <USARTInit>
      USARTPrintString("\nElectronic Climate System - Tempra\n\n");
     7e2:	8a ea       	ldi	r24, 0xAA	; 170
     7e4:	90 e0       	ldi	r25, 0x00	; 0
     7e6:	0e 94 20 03 	call	0x640	; 0x640 <USARTPrintString>
   #endif

   //--- HAL initialization ---//

   ADCInit(ADC_PRESCALER_DIV128, ADC_VREF_AREF); // ADC 62.5KHz. Vref=AVcc=5.0V. Fcpu=8MHz. 8000000/128=62500Hz=62.5kHz
     7ea:	60 e0       	ldi	r22, 0x00	; 0
     7ec:	87 e0       	ldi	r24, 0x07	; 7
     7ee:	0e 94 aa 03 	call	0x754	; 0x754 <ADCInit>

   // Display
   LEDInit();        // LED driver MM5481N module
     7f2:	0e 94 94 03 	call	0x728	; 0x728 <LEDInit>
   LCDInit();        // LCD driver PCF2112CT module
     7f6:	0e 94 3f 03 	call	0x67e	; 0x67e <LCDInit>
   LampsInit();      // LCD lamps driver module
     7fa:	0e 94 ed 02 	call	0x5da	; 0x5da <LampsInit>

   // Actuators
   ADMInit();        // Air Distribution Motor H-Bridge L293D module
     7fe:	0e 94 b0 01 	call	0x360	; 0x360 <ADMInit>
   TLPSInit();       // Three Level Pressure Switch H-Bridge L293D module
     802:	0e 94 f8 02 	call	0x5f0	; 0x5f0 <TLPSInit>
   ESRInit();        // Electronic Speed Regulator driver PWM output
     806:	0e 94 38 02 	call	0x470	; 0x470 <ESRInit>
   
   // Inputs
   KeypadInit();     // Keypad matrix buttons module
     80a:	0c 94 07 04 	jmp	0x80e	; 0x80e <KeypadInit>

0000080e <KeypadInit>:
   RETURN: void
*** */
void KeypadInit(void) {

   // Rows as outputs and Columns as inputs with external 8.2K pull-down resistors
   KEYPAD_PORT = 0x00;  // Set port as low
     80e:	15 ba       	out	0x15, r1	; 21
   // DDRx=0 and PORTx=0 Input with Pull-Down
   // DDRx=1             Output

   // Columns are in PORTx7..4 as input, no internal pull-up
   // Rows are in PORTx3..0 as output
   KEYPAD_DDR &= ~(KEYPAD_COLS_MASK | KEYPAD_ROWS_MASK);
     810:	84 b3       	in	r24, 0x14	; 20
     812:	14 ba       	out	0x14, r1	; 20
   _no_operation();
     814:	00 00       	nop

#if defined(DEBUG)
    USARTPrintString("KYPD-Init\n");
     816:	80 ed       	ldi	r24, 0xD0	; 208
     818:	90 e0       	ldi	r25, 0x00	; 0
     81a:	0c 94 20 03 	jmp	0x640	; 0x640 <USARTPrintString>

0000081e <KeypadTask>:
   DESCRIPTION: Keypad scan task callback function

   PARAMETERS: pTASK task. TASK structure
   RETURN: void
*** */
void KeypadTask(pTASK task) {
     81e:	ff 92       	push	r15
     820:	0f 93       	push	r16
     822:	1f 93       	push	r17
     824:	cf 93       	push	r28
     826:	df 93       	push	r29
   uint8_t keyPressed  = 0;               // Key pressed scanned
   uint8_t keyDebounce = 0;               // Key pressed scanned for de-bounce

   // Set rows output LOW (Low nibble: 0bxxxx-0000)
   // Set columns input HIGH with pull up (High nibble: 0b1111-xxxx)
   KEYPAD_PORT = 0xF0;
     828:	80 ef       	ldi	r24, 0xF0	; 240
     82a:	85 bb       	out	0x15, r24	; 21

   // Set keypad port as input (High Z state: 0b0000-0000)                                                       
   KEYPAD_DDR &= ~(KEYPAD_COLS_MASK | KEYPAD_ROWS_MASK);    
     82c:	84 b3       	in	r24, 0x14	; 20
     82e:	14 ba       	out	0x14, r1	; 20
   _no_operation();
     830:	00 00       	nop
     832:	20 e0       	ldi	r18, 0x00	; 0
     834:	e0 e0       	ldi	r30, 0x00	; 0
     836:	f0 e0       	ldi	r31, 0x00	; 0

   // For each row, test every column...
   for (uint8_t row = 0; row < KEYPAD_ROWS; row++) {

      KEYPAD_PORT |= (0x01 << row);    // Set row[i] pin HIGH. (Low nibble: 0bxxxx-0001 -> 0bxxxx-1000)
     838:	a1 e0       	ldi	r26, 0x01	; 1
     83a:	b0 e0       	ldi	r27, 0x00	; 0

      // ..., test every column!
      for (uint8_t col = 0; col < KEYPAD_ROWS; col++) {

         _delay_us(KEYPAD_SCAN_DELAY);                // Stay HIGH for nN us.
         keyPressed = (KEYPAD_PIN & (0x10 << col));   // Read PINx for key pressed (0b0001-xxxx -> 0b1000-xxxx) 
     83c:	00 e1       	ldi	r16, 0x10	; 16
     83e:	10 e0       	ldi	r17, 0x00	; 0
   _no_operation();

   // For each row, test every column...
   for (uint8_t row = 0; row < KEYPAD_ROWS; row++) {

      KEYPAD_PORT |= (0x01 << row);    // Set row[i] pin HIGH. (Low nibble: 0bxxxx-0001 -> 0bxxxx-1000)
     840:	35 b3       	in	r19, 0x15	; 21
     842:	cd 01       	movw	r24, r26
     844:	0e 2e       	mov	r0, r30
     846:	01 c0       	rjmp	.+2      	; 0x84a <KeypadTask+0x2c>
     848:	88 0f       	add	r24, r24
     84a:	0a 94       	dec	r0
     84c:	ea f7       	brpl	.-6      	; 0x848 <KeypadTask+0x2a>
     84e:	38 2b       	or	r19, r24
     850:	35 bb       	out	0x15, r19	; 21
      KEYPAD_DDR  |= (0x01 << row);    // Set row[i] pin as output
     852:	34 b3       	in	r19, 0x14	; 20
     854:	38 2b       	or	r19, r24
     856:	34 bb       	out	0x14, r19	; 20
      _no_operation();                 // For port sync. See datasheet
     858:	00 00       	nop
     85a:	40 e0       	ldi	r20, 0x00	; 0
     85c:	50 e0       	ldi	r21, 0x00	; 0
     85e:	c7 ee       	ldi	r28, 0xE7	; 231
     860:	d3 e0       	ldi	r29, 0x03	; 3
     862:	21 97       	sbiw	r28, 0x01	; 1
     864:	f1 f7       	brne	.-4      	; 0x862 <KeypadTask+0x44>
     866:	00 c0       	rjmp	.+0      	; 0x868 <KeypadTask+0x4a>
     868:	00 00       	nop

      // ..., test every column!
      for (uint8_t col = 0; col < KEYPAD_ROWS; col++) {

         _delay_us(KEYPAD_SCAN_DELAY);                // Stay HIGH for nN us.
         keyPressed = (KEYPAD_PIN & (0x10 << col));   // Read PINx for key pressed (0b0001-xxxx -> 0b1000-xxxx) 
     86a:	33 b3       	in	r19, 0x13	; 19
     86c:	b8 01       	movw	r22, r16
     86e:	04 2e       	mov	r0, r20
     870:	01 c0       	rjmp	.+2      	; 0x874 <KeypadTask+0x56>
     872:	66 0f       	add	r22, r22
     874:	0a 94       	dec	r0
     876:	ea f7       	brpl	.-6      	; 0x872 <KeypadTask+0x54>
     878:	36 23       	and	r19, r22
         
         // Key pressed? De-bounce
         if (keyPressed) {
     87a:	71 f0       	breq	.+28     	; 0x898 <KeypadTask+0x7a>
     87c:	cb ed       	ldi	r28, 0xDB	; 219
     87e:	d5 e0       	ldi	r29, 0x05	; 5
     880:	21 97       	sbiw	r28, 0x01	; 1
     882:	f1 f7       	brne	.-4      	; 0x880 <KeypadTask+0x62>
     884:	00 c0       	rjmp	.+0      	; 0x886 <KeypadTask+0x68>
     886:	00 00       	nop
            
            // Read PINx for key pressed after de-bounce delay
            _delay_us(KEYPAD_DEBOUNCE_DELAY);
            keyDebounce = (KEYPAD_PIN & (0x10 << col));
     888:	73 b3       	in	r23, 0x13	; 19
     88a:	67 23       	and	r22, r23

            // Key de-bounce?
            if (keyDebounce) {
     88c:	29 f0       	breq	.+10     	; 0x898 <KeypadTask+0x7a>

               // Is the same key?
               if (keyPressed == keyDebounce) {
     88e:	36 13       	cpse	r19, r22
     890:	03 c0       	rjmp	.+6      	; 0x898 <KeypadTask+0x7a>

                  // Get key code ID, we use this formula (Row * TOTAL_COLUMNS) + Column
                  // keyID = pgm_read_byte(&g_KeyLookupTable[(row * KEYPAD_COLS) + col]);
                  keyID = (row * KEYPAD_COLS) + col;  
     892:	c4 2f       	mov	r28, r20
     894:	c2 0f       	add	r28, r18
     896:	06 c0       	rjmp	.+12     	; 0x8a4 <KeypadTask+0x86>
     898:	4f 5f       	subi	r20, 0xFF	; 255
     89a:	5f 4f       	sbci	r21, 0xFF	; 255
      KEYPAD_PORT |= (0x01 << row);    // Set row[i] pin HIGH. (Low nibble: 0bxxxx-0001 -> 0bxxxx-1000)
      KEYPAD_DDR  |= (0x01 << row);    // Set row[i] pin as output
      _no_operation();                 // For port sync. See datasheet

      // ..., test every column!
      for (uint8_t col = 0; col < KEYPAD_ROWS; col++) {
     89c:	44 30       	cpi	r20, 0x04	; 4
     89e:	51 05       	cpc	r21, r1
     8a0:	f1 f6       	brne	.-68     	; 0x85e <KeypadTask+0x40>
     8a2:	c0 e1       	ldi	r28, 0x10	; 16
            }
         }
      }  // END: for (uint8_t col = 0; col < KEYPAD_COLS; col++) 

      // Continue with other column
      KEYPAD_PORT &= ~(0x01 << row);
     8a4:	95 b3       	in	r25, 0x15	; 21
     8a6:	80 95       	com	r24
     8a8:	98 23       	and	r25, r24
     8aa:	95 bb       	out	0x15, r25	; 21
      KEYPAD_DDR  &= ~(0x01 << row);
     8ac:	94 b3       	in	r25, 0x14	; 20
     8ae:	89 23       	and	r24, r25
     8b0:	84 bb       	out	0x14, r24	; 20
      _no_operation();
     8b2:	00 00       	nop

      if (keyID != KEYPAD_NO_KEY_PRESS) {
     8b4:	c0 31       	cpi	r28, 0x10	; 16
     8b6:	31 f4       	brne	.+12     	; 0x8c4 <KeypadTask+0xa6>
     8b8:	31 96       	adiw	r30, 0x01	; 1
     8ba:	2c 5f       	subi	r18, 0xFC	; 252
   // Set keypad port as input (High Z state: 0b0000-0000)                                                       
   KEYPAD_DDR &= ~(KEYPAD_COLS_MASK | KEYPAD_ROWS_MASK);    
   _no_operation();

   // For each row, test every column...
   for (uint8_t row = 0; row < KEYPAD_ROWS; row++) {
     8bc:	20 31       	cpi	r18, 0x10	; 16
     8be:	09 f0       	breq	.+2      	; 0x8c2 <KeypadTask+0xa4>
     8c0:	bf cf       	rjmp	.-130    	; 0x840 <KeypadTask+0x22>
     8c2:	0b c0       	rjmp	.+22     	; 0x8da <KeypadTask+0xbc>

   KEY_ID keyCode = KeypadScan();

   // Save last key ID, don't let the same key pressed over and over, let stay in push down mode until key is release
   if (keyCode != KEYPAD_NO_KEY_PRESS) {
      if (prevState == KEYPAD_KEYUP) {
     8c4:	80 91 60 00 	lds	r24, 0x0060	; 0x800060 <__DATA_REGION_ORIGIN__>
     8c8:	81 30       	cpi	r24, 0x01	; 1
     8ca:	89 f4       	brne	.+34     	; 0x8ee <KeypadTask+0xd0>
         g_keyPressed = keyCode;
     8cc:	c0 93 61 00 	sts	0x0061, r28	; 0x800061 <g_keyPressed>
         prevState = KEYPAD_KEYDOWN;
     8d0:	10 92 60 00 	sts	0x0060, r1	; 0x800060 <__DATA_REGION_ORIGIN__>

         g_dirty = 1;
     8d4:	80 93 3a 02 	sts	0x023A, r24	; 0x80023a <g_dirty>
     8d8:	0a c0       	rjmp	.+20     	; 0x8ee <KeypadTask+0xd0>
      }
   }
   else {
      if (prevState == KEYPAD_KEYDOWN) {
     8da:	80 91 60 00 	lds	r24, 0x0060	; 0x800060 <__DATA_REGION_ORIGIN__>
     8de:	81 11       	cpse	r24, r1
     8e0:	6b c0       	rjmp	.+214    	; 0x9b8 <KeypadTask+0x19a>
         g_keyPressed = KEYPAD_NO_KEY_PRESS;
     8e2:	20 93 61 00 	sts	0x0061, r18	; 0x800061 <g_keyPressed>
         prevState = KEYPAD_KEYUP;
     8e6:	81 e0       	ldi	r24, 0x01	; 1
     8e8:	80 93 60 00 	sts	0x0060, r24	; 0x800060 <__DATA_REGION_ORIGIN__>
     8ec:	65 c0       	rjmp	.+202    	; 0x9b8 <KeypadTask+0x19a>
*** */
static char *KeypadDescription(KEY_ID key) {

   static char desc[10] = { '\0' };

   if (key == KEY_TEMP_MINUS) strcpy(desc, "TEMP-");
     8ee:	c1 11       	cpse	r28, r1
     8f0:	03 c0       	rjmp	.+6      	; 0x8f8 <KeypadTask+0xda>
     8f2:	6b ed       	ldi	r22, 0xDB	; 219
     8f4:	70 e0       	ldi	r23, 0x00	; 0
     8f6:	3b c0       	rjmp	.+118    	; 0x96e <KeypadTask+0x150>
   if (key == KEY_SPEED_MINUS) strcpy(desc, "SPEED-");
     8f8:	c1 30       	cpi	r28, 0x01	; 1
     8fa:	19 f4       	brne	.+6      	; 0x902 <KeypadTask+0xe4>
     8fc:	61 ee       	ldi	r22, 0xE1	; 225
     8fe:	70 e0       	ldi	r23, 0x00	; 0
     900:	36 c0       	rjmp	.+108    	; 0x96e <KeypadTask+0x150>
   if (key == KEY_SPEED_PLUS) strcpy(desc, "SPEED+");
     902:	c2 30       	cpi	r28, 0x02	; 2
     904:	19 f4       	brne	.+6      	; 0x90c <KeypadTask+0xee>
     906:	68 ee       	ldi	r22, 0xE8	; 232
     908:	70 e0       	ldi	r23, 0x00	; 0
     90a:	31 c0       	rjmp	.+98     	; 0x96e <KeypadTask+0x150>
   if (key == KEY_TEMP_EXTERN) strcpy(desc, "EXT");
     90c:	c3 30       	cpi	r28, 0x03	; 3
     90e:	19 f4       	brne	.+6      	; 0x916 <KeypadTask+0xf8>
     910:	6f ee       	ldi	r22, 0xEF	; 239
     912:	70 e0       	ldi	r23, 0x00	; 0
     914:	2c c0       	rjmp	.+88     	; 0x96e <KeypadTask+0x150>
   if (key == KEY_RECIRCULATE) strcpy(desc, "RECI");
     916:	c4 30       	cpi	r28, 0x04	; 4
     918:	19 f4       	brne	.+6      	; 0x920 <KeypadTask+0x102>
     91a:	63 ef       	ldi	r22, 0xF3	; 243
     91c:	70 e0       	ldi	r23, 0x00	; 0
     91e:	27 c0       	rjmp	.+78     	; 0x96e <KeypadTask+0x150>
   if (key == KEY_OFF) strcpy(desc, "OFF");
     920:	c5 30       	cpi	r28, 0x05	; 5
     922:	19 f4       	brne	.+6      	; 0x92a <KeypadTask+0x10c>
     924:	68 ef       	ldi	r22, 0xF8	; 248
     926:	70 e0       	ldi	r23, 0x00	; 0
     928:	22 c0       	rjmp	.+68     	; 0x96e <KeypadTask+0x150>
   if (key == KEY_FEET) strcpy(desc, "FEET");
     92a:	c6 30       	cpi	r28, 0x06	; 6
     92c:	19 f4       	brne	.+6      	; 0x934 <KeypadTask+0x116>
     92e:	61 e0       	ldi	r22, 0x01	; 1
     930:	71 e0       	ldi	r23, 0x01	; 1
     932:	1d c0       	rjmp	.+58     	; 0x96e <KeypadTask+0x150>
   if (key == KEY_FRONT_FEET) strcpy(desc, "FRNT+FEET");
     934:	c8 30       	cpi	r28, 0x08	; 8
     936:	19 f4       	brne	.+6      	; 0x93e <KeypadTask+0x120>
     938:	6c ef       	ldi	r22, 0xFC	; 252
     93a:	70 e0       	ldi	r23, 0x00	; 0
     93c:	18 c0       	rjmp	.+48     	; 0x96e <KeypadTask+0x150>
   if (key == KEY_FRONT) strcpy(desc, "FRNT");
     93e:	c9 30       	cpi	r28, 0x09	; 9
     940:	19 f4       	brne	.+6      	; 0x948 <KeypadTask+0x12a>
     942:	66 e0       	ldi	r22, 0x06	; 6
     944:	71 e0       	ldi	r23, 0x01	; 1
     946:	13 c0       	rjmp	.+38     	; 0x96e <KeypadTask+0x150>
   if (key == KEY_WINDSHIELD) strcpy(desc, "WNDSH");
     948:	ca 30       	cpi	r28, 0x0A	; 10
     94a:	19 f4       	brne	.+6      	; 0x952 <KeypadTask+0x134>
     94c:	6b e0       	ldi	r22, 0x0B	; 11
     94e:	71 e0       	ldi	r23, 0x01	; 1
     950:	0e c0       	rjmp	.+28     	; 0x96e <KeypadTask+0x150>
   if (key == KEY_TEMP_PLUS) strcpy(desc, "TEMP+");
     952:	cc 30       	cpi	r28, 0x0C	; 12
     954:	19 f4       	brne	.+6      	; 0x95c <KeypadTask+0x13e>
     956:	61 e1       	ldi	r22, 0x11	; 17
     958:	71 e0       	ldi	r23, 0x01	; 1
     95a:	09 c0       	rjmp	.+18     	; 0x96e <KeypadTask+0x150>
   if (key == KEY_ECONOMICS) strcpy(desc, "ECO");
     95c:	cd 30       	cpi	r28, 0x0D	; 13
     95e:	19 f4       	brne	.+6      	; 0x966 <KeypadTask+0x148>
     960:	67 e1       	ldi	r22, 0x17	; 23
     962:	71 e0       	ldi	r23, 0x01	; 1
     964:	04 c0       	rjmp	.+8      	; 0x96e <KeypadTask+0x150>
   if (key == KEY_AUTO) strcpy(desc, "AUTO");
     966:	ce 30       	cpi	r28, 0x0E	; 14
     968:	31 f4       	brne	.+12     	; 0x976 <KeypadTask+0x158>
     96a:	6b e1       	ldi	r22, 0x1B	; 27
     96c:	71 e0       	ldi	r23, 0x01	; 1
     96e:	80 e3       	ldi	r24, 0x30	; 48
     970:	92 e0       	ldi	r25, 0x02	; 2
     972:	0e 94 4d 0e 	call	0x1c9a	; 0x1c9a <strcpy>
      }
   }

#if defined(DEBUG_KYPD)
    if (keyCode != KEYPAD_NO_KEY_PRESS) {
        sprintf(str, "KYPD-Tsk. [0x%02X]: %s\n", keyCode, KeypadDescription(keyCode));
     976:	80 e3       	ldi	r24, 0x30	; 48
     978:	92 e0       	ldi	r25, 0x02	; 2
     97a:	9f 93       	push	r25
     97c:	8f 93       	push	r24
     97e:	1f 92       	push	r1
     980:	cf 93       	push	r28
     982:	80 e2       	ldi	r24, 0x20	; 32
     984:	91 e0       	ldi	r25, 0x01	; 1
     986:	9f 93       	push	r25
     988:	8f 93       	push	r24
     98a:	86 ea       	ldi	r24, 0xA6	; 166
     98c:	92 e0       	ldi	r25, 0x02	; 2
     98e:	9f 93       	push	r25
     990:	8f 93       	push	r24
     992:	0e 94 54 0e 	call	0x1ca8	; 0x1ca8 <sprintf>
        USARTPrintString(str);
     996:	8d b7       	in	r24, 0x3d	; 61
     998:	9e b7       	in	r25, 0x3e	; 62
     99a:	08 96       	adiw	r24, 0x08	; 8
     99c:	0f b6       	in	r0, 0x3f	; 63
     99e:	f8 94       	cli
     9a0:	9e bf       	out	0x3e, r25	; 62
     9a2:	0f be       	out	0x3f, r0	; 63
     9a4:	8d bf       	out	0x3d, r24	; 61
     9a6:	86 ea       	ldi	r24, 0xA6	; 166
     9a8:	92 e0       	ldi	r25, 0x02	; 2
    }
#endif
}
     9aa:	df 91       	pop	r29
     9ac:	cf 91       	pop	r28
     9ae:	1f 91       	pop	r17
     9b0:	0f 91       	pop	r16
     9b2:	ff 90       	pop	r15
   }

#if defined(DEBUG_KYPD)
    if (keyCode != KEYPAD_NO_KEY_PRESS) {
        sprintf(str, "KYPD-Tsk. [0x%02X]: %s\n", keyCode, KeypadDescription(keyCode));
        USARTPrintString(str);
     9b4:	0c 94 20 03 	jmp	0x640	; 0x640 <USARTPrintString>
    }
#endif
}
     9b8:	df 91       	pop	r29
     9ba:	cf 91       	pop	r28
     9bc:	1f 91       	pop	r17
     9be:	0f 91       	pop	r16
     9c0:	ff 90       	pop	r15
     9c2:	08 95       	ret

000009c4 <KeypadGetLastKey>:

   PARAMETERS: pTASK task. TASK structure
   RETURN: KEY_ID. Key code or NO_KEY_PRESSED
*** */
KEY_ID KeypadGetLastKey(void) {
   uint8_t k = (g_dirty ? g_keyPressed : KEYPAD_NO_KEY_PRESS);     
     9c4:	80 91 3a 02 	lds	r24, 0x023A	; 0x80023a <g_dirty>
     9c8:	88 23       	and	r24, r24
     9ca:	19 f0       	breq	.+6      	; 0x9d2 <KeypadGetLastKey+0xe>
     9cc:	80 91 61 00 	lds	r24, 0x0061	; 0x800061 <g_keyPressed>
     9d0:	01 c0       	rjmp	.+2      	; 0x9d4 <KeypadGetLastKey+0x10>
     9d2:	80 e1       	ldi	r24, 0x10	; 16
   
   // Clean last key pressed
   g_dirty = 0;
     9d4:	10 92 3a 02 	sts	0x023A, r1	; 0x80023a <g_dirty>
   
   return k;
}
     9d8:	08 95       	ret

000009da <main>:
extern void ESRTask(pTASK task);
extern void ExtTempTask(pTASK task);


//--- MAIN task ---//
int main(void) {
     9da:	cf 93       	push	r28
     9dc:	df 93       	push	r29
     9de:	cd b7       	in	r28, 0x3d	; 61
     9e0:	de b7       	in	r29, 0x3e	; 62
     9e2:	a0 97       	sbiw	r28, 0x20	; 32
     9e4:	0f b6       	in	r0, 0x3f	; 63
     9e6:	f8 94       	cli
     9e8:	de bf       	out	0x3e, r29	; 62
     9ea:	0f be       	out	0x3f, r0	; 63
     9ec:	cd bf       	out	0x3d, r28	; 61

   // Disable JTAG port. Fuse Disabled
   // MCUCSR |=(1<<JTD);
   // MCUCSR |=(1<<JTD);

   BoardInit();   // HAL module. Execute before calling any other HAL function, like USART, ADC, etc...
     9ee:	0e 94 eb 03 	call	0x7d6	; 0x7d6 <BoardInit>
		USARTPrintString(str);
		_delay_ms(5000);
   }
   *** */

   TimerInit();   // Time counting and task scheduling module
     9f2:	0e 94 f8 07 	call	0xff0	; 0xff0 <TimerInit>
   TaskInit();    // Tasks module
     9f6:	0e 94 e4 06 	call	0xdc8	; 0xdc8 <TaskInit>
   // Unit controller and model setup
   UNIT_STATE           unitState;
   ADM_POSITION_INFO    admPosInfo;
   ESR_SPEED_INFO       esrSpeedInfo;
   TEMP_SENSORS_INFO    tempSensorsInfo;
   UnitInit(&unitState, &admPosInfo, &esrSpeedInfo, &tempSensorsInfo);
     9fa:	9e 01       	movw	r18, r28
     9fc:	27 5e       	subi	r18, 0xE7	; 231
     9fe:	3f 4f       	sbci	r19, 0xFF	; 255
     a00:	ae 01       	movw	r20, r28
     a02:	43 5e       	subi	r20, 0xE3	; 227
     a04:	5f 4f       	sbci	r21, 0xFF	; 255
     a06:	be 01       	movw	r22, r28
     a08:	64 5f       	subi	r22, 0xF4	; 244
     a0a:	7f 4f       	sbci	r23, 0xFF	; 255
     a0c:	ce 01       	movw	r24, r28
     a0e:	01 96       	adiw	r24, 0x01	; 1
     a10:	0e 94 33 09 	call	0x1266	; 0x1266 <UnitInit>

   // working variables
   KEY_ID key = KEYPAD_NO_KEY_PRESS;
   uint8_t esrSpeed = 0;
   tTime timer = TimerNow();
     a14:	0e 94 09 08 	call	0x1012	; 0x1012 <TimerNow>
     a18:	2b 01       	movw	r4, r22
     a1a:	3c 01       	movw	r6, r24

   // Create tasks (SIGNALed IDLE by default)
   tTaskId tskKey = TaskCreate("Keypad_Task", TimerNow(), TRE_HUNDRED_MSECOND, TT_PERIODIC, &KeypadTask, NULL);
     a1c:	0e 94 09 08 	call	0x1012	; 0x1012 <TimerNow>
     a20:	ab 01       	movw	r20, r22
     a22:	bc 01       	movw	r22, r24
     a24:	a1 2c       	mov	r10, r1
     a26:	b1 2c       	mov	r11, r1
     a28:	8f e0       	ldi	r24, 0x0F	; 15
     a2a:	c8 2e       	mov	r12, r24
     a2c:	84 e0       	ldi	r24, 0x04	; 4
     a2e:	d8 2e       	mov	r13, r24
     a30:	e1 2c       	mov	r14, r1
     a32:	04 e6       	ldi	r16, 0x64	; 100
     a34:	10 e0       	ldi	r17, 0x00	; 0
     a36:	20 e0       	ldi	r18, 0x00	; 0
     a38:	30 e0       	ldi	r19, 0x00	; 0
     a3a:	88 e3       	ldi	r24, 0x38	; 56
     a3c:	91 e0       	ldi	r25, 0x01	; 1
     a3e:	0e 94 f6 06 	call	0xdec	; 0xdec <TaskCreate>
     a42:	28 2e       	mov	r2, r24
   tTaskId tskTS = TaskCreate("TempSensors_Task", TimerNow(), TRE_ONE_SECOND, TT_PERIODIC, &TempSensorsTask, &tempSensorsInfo);
     a44:	0e 94 09 08 	call	0x1012	; 0x1012 <TimerNow>
     a48:	ab 01       	movw	r20, r22
     a4a:	bc 01       	movw	r22, r24
     a4c:	9e 01       	movw	r18, r28
     a4e:	27 5e       	subi	r18, 0xE7	; 231
     a50:	3f 4f       	sbci	r19, 0xFF	; 255
     a52:	59 01       	movw	r10, r18
     a54:	9f e0       	ldi	r25, 0x0F	; 15
     a56:	c9 2e       	mov	r12, r25
     a58:	99 e0       	ldi	r25, 0x09	; 9
     a5a:	d9 2e       	mov	r13, r25
     a5c:	08 ee       	ldi	r16, 0xE8	; 232
     a5e:	13 e0       	ldi	r17, 0x03	; 3
     a60:	20 e0       	ldi	r18, 0x00	; 0
     a62:	30 e0       	ldi	r19, 0x00	; 0
     a64:	84 e4       	ldi	r24, 0x44	; 68
     a66:	91 e0       	ldi	r25, 0x01	; 1
     a68:	0e 94 f6 06 	call	0xdec	; 0xdec <TaskCreate>
     a6c:	38 2e       	mov	r3, r24
   tTaskId tskESR = TaskCreate("ElecSpeedReg_Task", TimerNow(), TRE_TEN_MSECOND, TT_APERIODIC, &ESRTask, &esrSpeedInfo);
     a6e:	0e 94 09 08 	call	0x1012	; 0x1012 <TimerNow>
     a72:	ab 01       	movw	r20, r22
     a74:	bc 01       	movw	r22, r24
     a76:	ce 01       	movw	r24, r28
     a78:	4d 96       	adiw	r24, 0x1d	; 29
     a7a:	5c 01       	movw	r10, r24
     a7c:	2c ec       	ldi	r18, 0xCC	; 204
     a7e:	c2 2e       	mov	r12, r18
     a80:	22 e0       	ldi	r18, 0x02	; 2
     a82:	d2 2e       	mov	r13, r18
     a84:	32 e0       	ldi	r19, 0x02	; 2
     a86:	e3 2e       	mov	r14, r19
     a88:	0a e0       	ldi	r16, 0x0A	; 10
     a8a:	10 e0       	ldi	r17, 0x00	; 0
     a8c:	20 e0       	ldi	r18, 0x00	; 0
     a8e:	30 e0       	ldi	r19, 0x00	; 0
     a90:	85 e5       	ldi	r24, 0x55	; 85
     a92:	91 e0       	ldi	r25, 0x01	; 1
     a94:	0e 94 f6 06 	call	0xdec	; 0xdec <TaskCreate>
     a98:	f8 2e       	mov	r15, r24
   tTaskId tskADM = TaskCreate("AirDistMotor_Task", TimerNow(), TRE_TEN_MSECOND, TT_APERIODIC, &ADMTask, &admPosInfo);
     a9a:	0e 94 09 08 	call	0x1012	; 0x1012 <TimerNow>
     a9e:	ab 01       	movw	r20, r22
     aa0:	bc 01       	movw	r22, r24
     aa2:	9e 01       	movw	r18, r28
     aa4:	24 5f       	subi	r18, 0xF4	; 244
     aa6:	3f 4f       	sbci	r19, 0xFF	; 255
     aa8:	59 01       	movw	r10, r18
     aaa:	ef ef       	ldi	r30, 0xFF	; 255
     aac:	ce 2e       	mov	r12, r30
     aae:	e1 e0       	ldi	r30, 0x01	; 1
     ab0:	de 2e       	mov	r13, r30
     ab2:	0a e0       	ldi	r16, 0x0A	; 10
     ab4:	10 e0       	ldi	r17, 0x00	; 0
     ab6:	20 e0       	ldi	r18, 0x00	; 0
     ab8:	30 e0       	ldi	r19, 0x00	; 0
     aba:	87 e6       	ldi	r24, 0x67	; 103
     abc:	91 e0       	ldi	r25, 0x01	; 1
     abe:	0e 94 f6 06 	call	0xdec	; 0xdec <TaskCreate>
     ac2:	88 a3       	std	Y+32, r24	; 0x20
   tTaskId tskExtTemp = TaskCreate("ExternTemp_Task",  TimerNow(), TRE_TEN_SECONDS, TT_APERIODIC, &ExtTempTask, &unitState);
     ac4:	0e 94 09 08 	call	0x1012	; 0x1012 <TimerNow>
     ac8:	ab 01       	movw	r20, r22
     aca:	bc 01       	movw	r22, r24
     acc:	ce 01       	movw	r24, r28
     ace:	01 96       	adiw	r24, 0x01	; 1
     ad0:	5c 01       	movw	r10, r24
     ad2:	f5 e2       	ldi	r31, 0x25	; 37
     ad4:	cf 2e       	mov	r12, r31
     ad6:	f9 e0       	ldi	r31, 0x09	; 9
     ad8:	df 2e       	mov	r13, r31
     ada:	00 e1       	ldi	r16, 0x10	; 16
     adc:	17 e2       	ldi	r17, 0x27	; 39
     ade:	20 e0       	ldi	r18, 0x00	; 0
     ae0:	30 e0       	ldi	r19, 0x00	; 0
     ae2:	89 e7       	ldi	r24, 0x79	; 121
     ae4:	91 e0       	ldi	r25, 0x01	; 1
     ae6:	0e 94 f6 06 	call	0xdec	; 0xdec <TaskCreate>
     aea:	e8 2e       	mov	r14, r24

   // Startup periodic tasks (Keypad, Temp Sensors, others...)
   TaskSetStatus(tskKey, TS_READY);
     aec:	61 e0       	ldi	r22, 0x01	; 1
     aee:	82 2d       	mov	r24, r2
     af0:	0e 94 57 07 	call	0xeae	; 0xeae <TaskSetStatus>
   TaskSetStatus(tskTS, TS_READY);
     af4:	61 e0       	ldi	r22, 0x01	; 1
     af6:	83 2d       	mov	r24, r3
     af8:	0e 94 57 07 	call	0xeae	; 0xeae <TaskSetStatus>

   // Set unit in last state mode
   UnitLastState(&unitState);
     afc:	c5 01       	movw	r24, r10
     afe:	0e 94 95 09 	call	0x132a	; 0x132a <UnitLastState>

   // Prepare for SLEEP the CPU in power save mode
   set_sleep_mode(SLEEP_MODE_IDLE);
     b02:	85 b7       	in	r24, 0x35	; 53
     b04:	8f 74       	andi	r24, 0x4F	; 79
     b06:	85 bf       	out	0x35, r24	; 53

   // Enable global interrupt for scheduling
   sei();
     b08:	78 94       	sei
      if (unitState.flags.fUI) {
         unitState.flags.fUI = UNIT_FLAG_OFF;

         #ifdef DEBUG
            // Send unit state data for SignalR debug application
            sprintf(str, "US|%d|%d|%d|%d|%d|%d|%d|%d|\n", unitState.Status,
     b0a:	a9 e8       	ldi	r26, 0x89	; 137
     b0c:	8a 2e       	mov	r8, r26
     b0e:	a1 e0       	ldi	r26, 0x01	; 1
     b10:	9a 2e       	mov	r9, r26
     b12:	b6 ea       	ldi	r27, 0xA6	; 166
     b14:	cb 2e       	mov	r12, r27
     b16:	b2 e0       	ldi	r27, 0x02	; 2
     b18:	db 2e       	mov	r13, r27
            // Get voltage regulator info
            float fVref = ADCReadAsVoltage(AN6_L4947_VOLTAGE_REG);
            char strVref[6];
            
            // Transform Vref to string (like stdlib atof())
            dtostrf(fVref, 2, 3, strVref);
     b1a:	5e 01       	movw	r10, r28
     b1c:	93 e1       	ldi	r25, 0x13	; 19
     b1e:	a9 0e       	add	r10, r25
     b20:	b1 1c       	adc	r11, r1

            // Send operation state data for SignalR debug application
            sprintf(str, "OS|%s|%d|%d|%d|%d|%d|\n", strVref,
     b22:	16 ea       	ldi	r17, 0xA6	; 166
     b24:	21 2e       	mov	r2, r17
     b26:	11 e0       	ldi	r17, 0x01	; 1
     b28:	31 2e       	mov	r3, r17

   // main() loop task
   while (1) {

      // Process tasks and sleep if not more tasks active, if is possible :(
      RunScheduler();
     b2a:	0e 94 bc 07 	call	0xf78	; 0xf78 <RunScheduler>

      // Process the key press button that change the UI and set new operating mode
      key = KeypadGetLastKey();
     b2e:	0e 94 e2 04 	call	0x9c4	; 0x9c4 <KeypadGetLastKey>
      if (key != KEYPAD_NO_KEY_PRESS) {
     b32:	80 31       	cpi	r24, 0x10	; 16
     b34:	09 f4       	brne	.+2      	; 0xb38 <main+0x15e>
     b36:	45 c0       	rjmp	.+138    	; 0xbc2 <main+0x1e8>
         switch (key) {
     b38:	90 e0       	ldi	r25, 0x00	; 0
     b3a:	8f 30       	cpi	r24, 0x0F	; 15
     b3c:	91 05       	cpc	r25, r1
     b3e:	e8 f5       	brcc	.+122    	; 0xbba <main+0x1e0>
     b40:	fc 01       	movw	r30, r24
     b42:	e6 5d       	subi	r30, 0xD6	; 214
     b44:	ff 4f       	sbci	r31, 0xFF	; 255
     b46:	0c 94 96 0b 	jmp	0x172c	; 0x172c <__tablejump2__>
            case KEY_OFF:
               UnitOff(&unitState);          //Process OFF key first
     b4a:	ce 01       	movw	r24, r28
     b4c:	01 96       	adiw	r24, 0x01	; 1
     b4e:	0e 94 ab 09 	call	0x1356	; 0x1356 <UnitOff>
               break;
     b52:	33 c0       	rjmp	.+102    	; 0xbba <main+0x1e0>
            case KEY_TEMP_MINUS:             //<| Temperature
               UnitTempDec(&unitState);
     b54:	ce 01       	movw	r24, r28
     b56:	01 96       	adiw	r24, 0x01	; 1
     b58:	0e 94 25 0a 	call	0x144a	; 0x144a <UnitTempDec>
               break;
     b5c:	2e c0       	rjmp	.+92     	; 0xbba <main+0x1e0>
            case KEY_TEMP_PLUS:              //Temperature |>
               UnitTempInc(&unitState);
     b5e:	ce 01       	movw	r24, r28
     b60:	01 96       	adiw	r24, 0x01	; 1
     b62:	0e 94 0f 0a 	call	0x141e	; 0x141e <UnitTempInc>
               break;
     b66:	29 c0       	rjmp	.+82     	; 0xbba <main+0x1e0>
            case KEY_SPEED_MINUS:            //<| Speed
               UnitSpeedDec(&unitState);
     b68:	ce 01       	movw	r24, r28
     b6a:	01 96       	adiw	r24, 0x01	; 1
     b6c:	0e 94 58 0a 	call	0x14b0	; 0x14b0 <UnitSpeedDec>
               break;
     b70:	24 c0       	rjmp	.+72     	; 0xbba <main+0x1e0>
            case KEY_SPEED_PLUS:             //Speed |>
               UnitSpeedInc(&unitState);
     b72:	ce 01       	movw	r24, r28
     b74:	01 96       	adiw	r24, 0x01	; 1
     b76:	0e 94 47 0a 	call	0x148e	; 0x148e <UnitSpeedInc>
               break;
     b7a:	1f c0       	rjmp	.+62     	; 0xbba <main+0x1e0>
            case KEY_TEMP_EXTERN:            //Extern Temp. =|
               UnitExternTemp(&unitState);
     b7c:	ce 01       	movw	r24, r28
     b7e:	01 96       	adiw	r24, 0x01	; 1
     b80:	0e 94 3b 0a 	call	0x1476	; 0x1476 <UnitExternTemp>
               break;
     b84:	1a c0       	rjmp	.+52     	; 0xbba <main+0x1e0>
            case KEY_AUTO:                   //Automatic A/A
               UnitAutomatic(&unitState);
     b86:	ce 01       	movw	r24, r28
     b88:	01 96       	adiw	r24, 0x01	; 1
     b8a:	0e 94 b8 09 	call	0x1370	; 0x1370 <UnitAutomatic>
               break;
     b8e:	15 c0       	rjmp	.+42     	; 0xbba <main+0x1e0>
            case KEY_ECONOMICS:              //Economics A/A
               UnitEconomic(&unitState);
     b90:	ce 01       	movw	r24, r28
     b92:	01 96       	adiw	r24, 0x01	; 1
     b94:	0e 94 eb 09 	call	0x13d6	; 0x13d6 <UnitEconomic>
               break;
     b98:	10 c0       	rjmp	.+32     	; 0xbba <main+0x1e0>
            case KEY_RECIRCULATE:            //Recirculate A/A
               UnitRecirculate(&unitState);
     b9a:	ce 01       	movw	r24, r28
     b9c:	01 96       	adiw	r24, 0x01	; 1
     b9e:	0e 94 fd 09 	call	0x13fa	; 0x13fa <UnitRecirculate>
               break;
     ba2:	0b c0       	rjmp	.+22     	; 0xbba <main+0x1e0>
            case KEY_WINDSHIELD:             //AirDistMotor: Windshield
               UnitAirDistMotor(&unitState, ADM_WINDSHIELD);
     ba4:	63 e0       	ldi	r22, 0x03	; 3
     ba6:	05 c0       	rjmp	.+10     	; 0xbb2 <main+0x1d8>
               break;
            case KEY_FRONT:                  //AirDistMotor: Front
               UnitAirDistMotor(&unitState, ADM_FRONT);
     ba8:	60 e0       	ldi	r22, 0x00	; 0
     baa:	03 c0       	rjmp	.+6      	; 0xbb2 <main+0x1d8>
               break;
            case KEY_FRONT_FEET:             //AirDistMotor: Front+Feet
               UnitAirDistMotor(&unitState, ADM_FRONT_FEET);
     bac:	61 e0       	ldi	r22, 0x01	; 1
     bae:	01 c0       	rjmp	.+2      	; 0xbb2 <main+0x1d8>
               break;
            case KEY_FEET:                   //AirDistMotor: Feet
               UnitAirDistMotor(&unitState, ADM_FEET);
     bb0:	62 e0       	ldi	r22, 0x02	; 2
     bb2:	ce 01       	movw	r24, r28
     bb4:	01 96       	adiw	r24, 0x01	; 1
     bb6:	0e 94 69 0a 	call	0x14d2	; 0x14d2 <UnitAirDistMotor>
            default:
               break;
         }

         // Save modified unit state in EEPROM memory
         UnitSaveState(&unitState);
     bba:	ce 01       	movw	r24, r28
     bbc:	01 96       	adiw	r24, 0x01	; 1
     bbe:	0e 94 6d 09 	call	0x12da	; 0x12da <UnitSaveState>
      }

      //--- Main unit controller task ---//

      // Update UI?
      if (unitState.flags.fUI) {
     bc2:	8b 85       	ldd	r24, Y+11	; 0x0b
     bc4:	80 ff       	sbrs	r24, 0
     bc6:	76 c0       	rjmp	.+236    	; 0xcb4 <main+0x2da>
         unitState.flags.fUI = UNIT_FLAG_OFF;
     bc8:	8e 7f       	andi	r24, 0xFE	; 254
     bca:	8b 87       	std	Y+11, r24	; 0x0b
                                                          unitState.Economic,
                                                          unitState.Recirculate,
                                                          unitState.AirDistMotor,
                                                          unitState.SelectedTemp,
                                                          unitState.Speed,
                                                          unitState.flags.fExtTemp);
     bcc:	86 fb       	bst	r24, 6
     bce:	88 27       	eor	r24, r24
     bd0:	80 f9       	bld	r24, 0
      if (unitState.flags.fUI) {
         unitState.flags.fUI = UNIT_FLAG_OFF;

         #ifdef DEBUG
            // Send unit state data for SignalR debug application
            sprintf(str, "US|%d|%d|%d|%d|%d|%d|%d|%d|\n", unitState.Status,
     bd2:	1f 92       	push	r1
     bd4:	8f 93       	push	r24
     bd6:	8e 81       	ldd	r24, Y+6	; 0x06
     bd8:	1f 92       	push	r1
     bda:	8f 93       	push	r24
     bdc:	8d 81       	ldd	r24, Y+5	; 0x05
     bde:	1f 92       	push	r1
     be0:	8f 93       	push	r24
     be2:	8f 81       	ldd	r24, Y+7	; 0x07
     be4:	1f 92       	push	r1
     be6:	8f 93       	push	r24
     be8:	8c 81       	ldd	r24, Y+4	; 0x04
     bea:	1f 92       	push	r1
     bec:	8f 93       	push	r24
     bee:	8b 81       	ldd	r24, Y+3	; 0x03
     bf0:	1f 92       	push	r1
     bf2:	8f 93       	push	r24
     bf4:	8a 81       	ldd	r24, Y+2	; 0x02
     bf6:	1f 92       	push	r1
     bf8:	8f 93       	push	r24
     bfa:	89 81       	ldd	r24, Y+1	; 0x01
     bfc:	1f 92       	push	r1
     bfe:	8f 93       	push	r24
     c00:	9f 92       	push	r9
     c02:	8f 92       	push	r8
     c04:	df 92       	push	r13
     c06:	cf 92       	push	r12
     c08:	0e 94 54 0e 	call	0x1ca8	; 0x1ca8 <sprintf>
                                                          unitState.Recirculate,
                                                          unitState.AirDistMotor,
                                                          unitState.SelectedTemp,
                                                          unitState.Speed,
                                                          unitState.flags.fExtTemp);
            USARTPrintString(str);
     c0c:	86 ea       	ldi	r24, 0xA6	; 166
     c0e:	92 e0       	ldi	r25, 0x02	; 2
     c10:	0e 94 20 03 	call	0x640	; 0x640 <USARTPrintString>
         #endif

         // Display extern temperature for about 10 seconds
         if (unitState.flags.fExtTemp) {
     c14:	8b 85       	ldd	r24, Y+11	; 0x0b
     c16:	0f b6       	in	r0, 0x3f	; 63
     c18:	f8 94       	cli
     c1a:	de bf       	out	0x3e, r29	; 62
     c1c:	0f be       	out	0x3f, r0	; 63
     c1e:	cd bf       	out	0x3d, r28	; 61
     c20:	86 ff       	sbrs	r24, 6
     c22:	04 c0       	rjmp	.+8      	; 0xc2c <main+0x252>
            TaskSetStatus(tskExtTemp, TS_READY);
     c24:	61 e0       	ldi	r22, 0x01	; 1
     c26:	8e 2d       	mov	r24, r14
     c28:	0e 94 57 07 	call	0xeae	; 0xeae <TaskSetStatus>
         }

         // If Air Dist. Motor position changed
         if (unitState.flags.fAirDistMotor) {
     c2c:	8b 85       	ldd	r24, Y+11	; 0x0b
     c2e:	81 ff       	sbrs	r24, 1
     c30:	0e c0       	rjmp	.+28     	; 0xc4e <main+0x274>
            unitState.flags.fAirDistMotor = UNIT_FLAG_OFF;
     c32:	8d 7f       	andi	r24, 0xFD	; 253
     c34:	8b 87       	std	Y+11, r24	; 0x0b

            ADMUpdatePositionInfo(&admPosInfo, unitState.AirDistMotor);
     c36:	6f 81       	ldd	r22, Y+7	; 0x07
     c38:	ce 01       	movw	r24, r28
     c3a:	0c 96       	adiw	r24, 0x0c	; 12
     c3c:	0e 94 d9 01 	call	0x3b2	; 0x3b2 <ADMUpdatePositionInfo>
            if (admPosInfo.admMove) {
     c40:	88 89       	ldd	r24, Y+16	; 0x10
     c42:	88 23       	and	r24, r24
     c44:	21 f0       	breq	.+8      	; 0xc4e <main+0x274>
               TaskSetStatus(tskADM, TS_READY);
     c46:	61 e0       	ldi	r22, 0x01	; 1
     c48:	88 a1       	ldd	r24, Y+32	; 0x20
     c4a:	0e 94 57 07 	call	0xeae	; 0xeae <TaskSetStatus>
            }
         }

         // Blower speed changed. Turn on/off the electronic speed regulator?
         if (unitState.flags.fSpeed) {
     c4e:	8b 85       	ldd	r24, Y+11	; 0x0b
     c50:	85 ff       	sbrs	r24, 5
     c52:	23 c0       	rjmp	.+70     	; 0xc9a <main+0x2c0>
            unitState.flags.fSpeed = UNIT_FLAG_OFF;
     c54:	8f 7d       	andi	r24, 0xDF	; 223
     c56:	8b 87       	std	Y+11, r24	; 0x0b
            
            esrSpeed = (unitState.Speed * 2) - 1;  // Adjust for speed lookup table. See elecSpeedReg.c
     c58:	6e 81       	ldd	r22, Y+6	; 0x06
            if (unitState.Status == US_OFF) {
     c5a:	89 81       	ldd	r24, Y+1	; 0x01
     c5c:	88 23       	and	r24, r24
     c5e:	19 f0       	breq	.+6      	; 0xc66 <main+0x28c>

         // Blower speed changed. Turn on/off the electronic speed regulator?
         if (unitState.flags.fSpeed) {
            unitState.flags.fSpeed = UNIT_FLAG_OFF;
            
            esrSpeed = (unitState.Speed * 2) - 1;  // Adjust for speed lookup table. See elecSpeedReg.c
     c60:	66 0f       	add	r22, r22
     c62:	61 50       	subi	r22, 0x01	; 1
     c64:	01 c0       	rjmp	.+2      	; 0xc68 <main+0x28e>
            if (unitState.Status == US_OFF) {
               esrSpeed = 0;  //Off
     c66:	60 e0       	ldi	r22, 0x00	; 0
            }

            ESRUpdateSpeedInfo(&esrSpeedInfo, esrSpeed);
     c68:	ce 01       	movw	r24, r28
     c6a:	4d 96       	adiw	r24, 0x1d	; 29
     c6c:	0e 94 b2 02 	call	0x564	; 0x564 <ESRUpdateSpeedInfo>
            if (esrSpeedInfo.esrMove) {
     c70:	8f 8d       	ldd	r24, Y+31	; 0x1f
     c72:	88 23       	and	r24, r24
     c74:	91 f0       	breq	.+36     	; 0xc9a <main+0x2c0>
               TaskSetTimers(tskESR, TimerNow() + TRE_ONE_SECOND, 0);   //Run in the next 1s. Wait while user end setting new speed
     c76:	0e 94 09 08 	call	0x1012	; 0x1012 <TimerNow>
     c7a:	ab 01       	movw	r20, r22
     c7c:	bc 01       	movw	r22, r24
     c7e:	48 51       	subi	r20, 0x18	; 24
     c80:	5c 4f       	sbci	r21, 0xFC	; 252
     c82:	6f 4f       	sbci	r22, 0xFF	; 255
     c84:	7f 4f       	sbci	r23, 0xFF	; 255
     c86:	00 e0       	ldi	r16, 0x00	; 0
     c88:	10 e0       	ldi	r17, 0x00	; 0
     c8a:	98 01       	movw	r18, r16
     c8c:	8f 2d       	mov	r24, r15
     c8e:	0e 94 73 07 	call	0xee6	; 0xee6 <TaskSetTimers>
               TaskSetStatus(tskESR, TS_READY);
     c92:	61 e0       	ldi	r22, 0x01	; 1
     c94:	8f 2d       	mov	r24, r15
     c96:	0e 94 57 07 	call	0xeae	; 0xeae <TaskSetStatus>
            }
         }
         
         // Turn off compressor pulley
         if (unitState.Status == US_OFF) {
     c9a:	89 81       	ldd	r24, Y+1	; 0x01
     c9c:	81 11       	cpse	r24, r1
     c9e:	03 c0       	rjmp	.+6      	; 0xca6 <main+0x2cc>
            unitState.ThreeLevelSwitch = TLPSS_OFF;
     ca0:	1a 86       	std	Y+10, r1	; 0x0a
            TLPSSetState(TLPSS_OFF);
     ca2:	0e 94 fe 02 	call	0x5fc	; 0x5fc <TLPSSetState>
         }

         // Change UI
         UnitUIUpdate(&unitState, &tempSensorsInfo);
     ca6:	be 01       	movw	r22, r28
     ca8:	67 5e       	subi	r22, 0xE7	; 231
     caa:	7f 4f       	sbci	r23, 0xFF	; 255
     cac:	ce 01       	movw	r24, r28
     cae:	01 96       	adiw	r24, 0x01	; 1
     cb0:	0e 94 a0 0a 	call	0x1540	; 0x1540 <UnitUIUpdate>
      }

      // Check normal working operation every 2 seconds
      if (TimerElapsed(timer) >= TRE_TWO_SECONDS) {
     cb4:	c3 01       	movw	r24, r6
     cb6:	b2 01       	movw	r22, r4
     cb8:	0e 94 15 08 	call	0x102a	; 0x102a <TimerElapsed>
     cbc:	60 3d       	cpi	r22, 0xD0	; 208
     cbe:	77 40       	sbci	r23, 0x07	; 7
     cc0:	81 05       	cpc	r24, r1
     cc2:	91 05       	cpc	r25, r1
     cc4:	08 f4       	brcc	.+2      	; 0xcc8 <main+0x2ee>
     cc6:	75 c0       	rjmp	.+234    	; 0xdb2 <main+0x3d8>

         if (unitState.Status == US_ON) {
     cc8:	49 81       	ldd	r20, Y+1	; 0x01
     cca:	41 30       	cpi	r20, 0x01	; 1
     ccc:	b1 f5       	brne	.+108    	; 0xd3a <main+0x360>
            
            // Unit:OFF or ECONomics:ON or passenger temperature below selected temperature
            if ((unitState.Economic) || (tempSensorsInfo.Passenger < unitState.SelectedTemp)) {
     cce:	8b 81       	ldd	r24, Y+3	; 0x03
     cd0:	81 11       	cpse	r24, r1
     cd2:	09 c0       	rjmp	.+18     	; 0xce6 <main+0x30c>
     cd4:	2c 8d       	ldd	r18, Y+28	; 0x1c
     cd6:	02 2e       	mov	r0, r18
     cd8:	00 0c       	add	r0, r0
     cda:	33 0b       	sbc	r19, r19
     cdc:	8d 81       	ldd	r24, Y+5	; 0x05
     cde:	90 e0       	ldi	r25, 0x00	; 0
     ce0:	28 17       	cp	r18, r24
     ce2:	39 07       	cpc	r19, r25
     ce4:	14 f4       	brge	.+4      	; 0xcea <main+0x310>
               unitState.ThreeLevelSwitch = TLPSS_OFF;
     ce6:	1a 86       	std	Y+10, r1	; 0x0a
     ce8:	01 c0       	rjmp	.+2      	; 0xcec <main+0x312>
            }
            else {
               unitState.ThreeLevelSwitch = TLPSS_ON;
     cea:	4a 87       	std	Y+10, r20	; 0x0a
            }

            // Compressor Pulley
            TLPSSetState(unitState.ThreeLevelSwitch);
     cec:	8a 85       	ldd	r24, Y+10	; 0x0a
     cee:	0e 94 fe 02 	call	0x5fc	; 0x5fc <TLPSSetState>

            // If we are in AUTOmatic mode control automatic blower speed
            if (unitState.Auto) {
     cf2:	8a 81       	ldd	r24, Y+2	; 0x02
     cf4:	88 23       	and	r24, r24
     cf6:	09 f1       	breq	.+66     	; 0xd3a <main+0x360>
               esrSpeed = (tempSensorsInfo.Passenger - 18) + 1;  // Adjust for speed lookup table. See elecSpeedReg.c
     cf8:	6c 8d       	ldd	r22, Y+28	; 0x1c
     cfa:	61 51       	subi	r22, 0x11	; 17
               // Check index range. The unit is limit for operating temperature from 18 to 32 Celsius degree, lower or higher
               // temps. are show as LO/HI respectively, but temps. sensor still sense this, because of that we need validate
               // out of range values for lookup table. 
               // Example: Lower temp. tempSensorsInfo.Passenger = 16. esrSpeed = (16 - 18) + 1 = -1
               // Example: Higher temp. tempSensorsInfo.Passenger = 33. esrSpeed = (33 - 18) + 1 = 16
               if (esrSpeed <= 0) {
     cfc:	21 f0       	breq	.+8      	; 0xd06 <main+0x32c>
                  esrSpeed = ESR_SPEED_1;    //Set min. speed
               }

               if (esrSpeed >= ESR_MAX_SPEED) {
     cfe:	60 31       	cpi	r22, 0x10	; 16
     d00:	18 f0       	brcs	.+6      	; 0xd08 <main+0x32e>
                  esrSpeed = ESR_SPEED_15;   //Set max. speed
     d02:	6f e0       	ldi	r22, 0x0F	; 15
     d04:	01 c0       	rjmp	.+2      	; 0xd08 <main+0x32e>
               // temps. are show as LO/HI respectively, but temps. sensor still sense this, because of that we need validate
               // out of range values for lookup table. 
               // Example: Lower temp. tempSensorsInfo.Passenger = 16. esrSpeed = (16 - 18) + 1 = -1
               // Example: Higher temp. tempSensorsInfo.Passenger = 33. esrSpeed = (33 - 18) + 1 = 16
               if (esrSpeed <= 0) {
                  esrSpeed = ESR_SPEED_1;    //Set min. speed
     d06:	61 e0       	ldi	r22, 0x01	; 1

               if (esrSpeed >= ESR_MAX_SPEED) {
                  esrSpeed = ESR_SPEED_15;   //Set max. speed
               }

               ESRUpdateSpeedInfo(&esrSpeedInfo, esrSpeed);
     d08:	ce 01       	movw	r24, r28
     d0a:	4d 96       	adiw	r24, 0x1d	; 29
     d0c:	0e 94 b2 02 	call	0x564	; 0x564 <ESRUpdateSpeedInfo>
               if (esrSpeedInfo.esrMove) {
     d10:	8f 8d       	ldd	r24, Y+31	; 0x1f
     d12:	88 23       	and	r24, r24
     d14:	91 f0       	breq	.+36     	; 0xd3a <main+0x360>
                  TaskSetTimers(tskESR, TimerNow() + TRE_ONE_SECOND, 0);   //Run in the next 1s. Wait while user end setting new speed
     d16:	0e 94 09 08 	call	0x1012	; 0x1012 <TimerNow>
     d1a:	ab 01       	movw	r20, r22
     d1c:	bc 01       	movw	r22, r24
     d1e:	48 51       	subi	r20, 0x18	; 24
     d20:	5c 4f       	sbci	r21, 0xFC	; 252
     d22:	6f 4f       	sbci	r22, 0xFF	; 255
     d24:	7f 4f       	sbci	r23, 0xFF	; 255
     d26:	00 e0       	ldi	r16, 0x00	; 0
     d28:	10 e0       	ldi	r17, 0x00	; 0
     d2a:	98 01       	movw	r18, r16
     d2c:	8f 2d       	mov	r24, r15
     d2e:	0e 94 73 07 	call	0xee6	; 0xee6 <TaskSetTimers>
                  TaskSetStatus(tskESR, TS_READY);
     d32:	61 e0       	ldi	r22, 0x01	; 1
     d34:	8f 2d       	mov	r24, r15
     d36:	0e 94 57 07 	call	0xeae	; 0xeae <TaskSetStatus>
            }
         }

         #ifdef DEBUG
            // Get voltage regulator info
            float fVref = ADCReadAsVoltage(AN6_L4947_VOLTAGE_REG);
     d3a:	86 e0       	ldi	r24, 0x06	; 6
     d3c:	0e 94 db 03 	call	0x7b6	; 0x7b6 <ADCReadAsVoltage>
            char strVref[6];
            
            // Transform Vref to string (like stdlib atof())
            dtostrf(fVref, 2, 3, strVref);
     d40:	85 01       	movw	r16, r10
     d42:	23 e0       	ldi	r18, 0x03	; 3
     d44:	42 e0       	ldi	r20, 0x02	; 2
     d46:	0e 94 2d 0e 	call	0x1c5a	; 0x1c5a <dtostrf>

            // Send operation state data for SignalR debug application
            sprintf(str, "OS|%s|%d|%d|%d|%d|%d|\n", strVref,
     d4a:	8a 8d       	ldd	r24, Y+26	; 0x1a
     d4c:	28 2f       	mov	r18, r24
     d4e:	08 2e       	mov	r0, r24
     d50:	00 0c       	add	r0, r0
     d52:	33 0b       	sbc	r19, r19
     d54:	3f 93       	push	r19
     d56:	8f 93       	push	r24
     d58:	89 8d       	ldd	r24, Y+25	; 0x19
     d5a:	28 2f       	mov	r18, r24
     d5c:	08 2e       	mov	r0, r24
     d5e:	00 0c       	add	r0, r0
     d60:	33 0b       	sbc	r19, r19
     d62:	3f 93       	push	r19
     d64:	8f 93       	push	r24
     d66:	8c 8d       	ldd	r24, Y+28	; 0x1c
     d68:	28 2f       	mov	r18, r24
     d6a:	08 2e       	mov	r0, r24
     d6c:	00 0c       	add	r0, r0
     d6e:	33 0b       	sbc	r19, r19
     d70:	3f 93       	push	r19
     d72:	8f 93       	push	r24
     d74:	8b 8d       	ldd	r24, Y+27	; 0x1b
     d76:	28 2f       	mov	r18, r24
     d78:	08 2e       	mov	r0, r24
     d7a:	00 0c       	add	r0, r0
     d7c:	33 0b       	sbc	r19, r19
     d7e:	3f 93       	push	r19
     d80:	8f 93       	push	r24
     d82:	8a 85       	ldd	r24, Y+10	; 0x0a
     d84:	1f 92       	push	r1
     d86:	8f 93       	push	r24
     d88:	bf 92       	push	r11
     d8a:	af 92       	push	r10
     d8c:	3f 92       	push	r3
     d8e:	2f 92       	push	r2
     d90:	df 92       	push	r13
     d92:	cf 92       	push	r12
     d94:	0e 94 54 0e 	call	0x1ca8	; 0x1ca8 <sprintf>
                                                    unitState.ThreeLevelSwitch,
                                                    tempSensorsInfo.OutsideMirror,
                                                    tempSensorsInfo.Passenger,
                                                    tempSensorsInfo.TopBlended,
                                                    tempSensorsInfo.BottomBlended);
             USARTPrintString(str);
     d98:	86 ea       	ldi	r24, 0xA6	; 166
     d9a:	92 e0       	ldi	r25, 0x02	; 2
     d9c:	0e 94 20 03 	call	0x640	; 0x640 <USARTPrintString>
         #endif

         // Reload timer trigger
         timer = TimerNow();
     da0:	0e 94 09 08 	call	0x1012	; 0x1012 <TimerNow>
     da4:	2b 01       	movw	r4, r22
     da6:	3c 01       	movw	r6, r24
     da8:	0f b6       	in	r0, 0x3f	; 63
     daa:	f8 94       	cli
     dac:	de bf       	out	0x3e, r29	; 62
     dae:	0f be       	out	0x3f, r0	; 63
     db0:	cd bf       	out	0x3d, r28	; 61
      }
      
      // Save some power      
      cli();
     db2:	f8 94       	cli
      sleep_enable();
     db4:	85 b7       	in	r24, 0x35	; 53
     db6:	80 64       	ori	r24, 0x40	; 64
     db8:	85 bf       	out	0x35, r24	; 53
      sei();
     dba:	78 94       	sei
      sleep_cpu();      // Goto Sleep CPU, Mimimimimimi!
     dbc:	88 95       	sleep
      sleep_disable();
     dbe:	85 b7       	in	r24, 0x35	; 53
     dc0:	8f 7b       	andi	r24, 0xBF	; 191
     dc2:	85 bf       	out	0x35, r24	; 53
      sei();
     dc4:	78 94       	sei

   } // END while() {}
     dc6:	b1 ce       	rjmp	.-670    	; 0xb2a <main+0x150>

00000dc8 <TaskInit>:
}

void TaskSetParameter(tTaskId id, void * parameter) {
   pTASK pTsk = FindTask(id);
   if (pTsk) {
      pTsk->parameter = parameter;
     dc8:	ec e3       	ldi	r30, 0x3C	; 60
     dca:	f2 e0       	ldi	r31, 0x02	; 2
     dcc:	81 e1       	ldi	r24, 0x11	; 17
     dce:	df 01       	movw	r26, r30
     dd0:	98 2f       	mov	r25, r24
     dd2:	1d 92       	st	X+, r1
     dd4:	9a 95       	dec	r25
     dd6:	e9 f7       	brne	.-6      	; 0xdd2 <TaskInit+0xa>
     dd8:	13 86       	std	Z+11, r1	; 0x0b
     dda:	71 96       	adiw	r30, 0x11	; 17
     ddc:	a2 e0       	ldi	r26, 0x02	; 2
     dde:	e2 3a       	cpi	r30, 0xA2	; 162
     de0:	fa 07       	cpc	r31, r26
     de2:	a9 f7       	brne	.-22     	; 0xdce <TaskInit+0x6>
     de4:	8d eb       	ldi	r24, 0xBD	; 189
     de6:	91 e0       	ldi	r25, 0x01	; 1
     de8:	0c 94 20 03 	jmp	0x640	; 0x640 <USARTPrintString>

00000dec <TaskCreate>:
     dec:	4f 92       	push	r4
     dee:	5f 92       	push	r5
     df0:	6f 92       	push	r6
     df2:	7f 92       	push	r7
     df4:	af 92       	push	r10
     df6:	bf 92       	push	r11
     df8:	cf 92       	push	r12
     dfa:	df 92       	push	r13
     dfc:	ef 92       	push	r14
     dfe:	0f 93       	push	r16
     e00:	1f 93       	push	r17
     e02:	cf 93       	push	r28
     e04:	df 93       	push	r29
     e06:	c0 91 3b 02 	lds	r28, 0x023B	; 0x80023b <taskId.2344>
     e0a:	c6 30       	cpi	r28, 0x06	; 6
     e0c:	08 f0       	brcs	.+2      	; 0xe10 <TaskCreate+0x24>
     e0e:	40 c0       	rjmp	.+128    	; 0xe90 <TaskCreate+0xa4>
     e10:	28 01       	movw	r4, r16
     e12:	39 01       	movw	r6, r18
     e14:	21 e0       	ldi	r18, 0x01	; 1
     e16:	2c 0f       	add	r18, r28
     e18:	20 93 3b 02 	sts	0x023B, r18	; 0x80023b <taskId.2344>
     e1c:	31 e1       	ldi	r19, 0x11	; 17
     e1e:	c3 9f       	mul	r28, r19
     e20:	e0 01       	movw	r28, r0
     e22:	11 24       	eor	r1, r1
     e24:	c4 5c       	subi	r28, 0xC4	; 196
     e26:	dd 4f       	sbci	r29, 0xFD	; 253
     e28:	28 83       	st	Y, r18
     e2a:	4b 83       	std	Y+3, r20	; 0x03
     e2c:	5c 83       	std	Y+4, r21	; 0x04
     e2e:	6d 83       	std	Y+5, r22	; 0x05
     e30:	7e 83       	std	Y+6, r23	; 0x06
     e32:	4f 82       	std	Y+7, r4	; 0x07
     e34:	58 86       	std	Y+8, r5	; 0x08
     e36:	69 86       	std	Y+9, r6	; 0x09
     e38:	7a 86       	std	Y+10, r7	; 0x0a
     e3a:	ec 86       	std	Y+12, r14	; 0x0c
     e3c:	de 86       	std	Y+14, r13	; 0x0e
     e3e:	cd 86       	std	Y+13, r12	; 0x0d
     e40:	b8 8a       	std	Y+16, r11	; 0x10
     e42:	af 86       	std	Y+15, r10	; 0x0f
     e44:	89 83       	std	Y+1, r24	; 0x01
     e46:	9a 83       	std	Y+2, r25	; 0x02
     e48:	df 93       	push	r29
     e4a:	cf 93       	push	r28
     e4c:	3b 85       	ldd	r19, Y+11	; 0x0b
     e4e:	1f 92       	push	r1
     e50:	3f 93       	push	r19
     e52:	1f 92       	push	r1
     e54:	ef 92       	push	r14
     e56:	9f 93       	push	r25
     e58:	8f 93       	push	r24
     e5a:	1f 92       	push	r1
     e5c:	2f 93       	push	r18
     e5e:	87 ec       	ldi	r24, 0xC7	; 199
     e60:	91 e0       	ldi	r25, 0x01	; 1
     e62:	9f 93       	push	r25
     e64:	8f 93       	push	r24
     e66:	86 ea       	ldi	r24, 0xA6	; 166
     e68:	92 e0       	ldi	r25, 0x02	; 2
     e6a:	9f 93       	push	r25
     e6c:	8f 93       	push	r24
     e6e:	0e 94 54 0e 	call	0x1ca8	; 0x1ca8 <sprintf>
     e72:	86 ea       	ldi	r24, 0xA6	; 166
     e74:	92 e0       	ldi	r25, 0x02	; 2
     e76:	0e 94 20 03 	call	0x640	; 0x640 <USARTPrintString>
     e7a:	88 81       	ld	r24, Y
     e7c:	2d b7       	in	r18, 0x3d	; 61
     e7e:	3e b7       	in	r19, 0x3e	; 62
     e80:	22 5f       	subi	r18, 0xF2	; 242
     e82:	3f 4f       	sbci	r19, 0xFF	; 255
     e84:	0f b6       	in	r0, 0x3f	; 63
     e86:	f8 94       	cli
     e88:	3e bf       	out	0x3e, r19	; 62
     e8a:	0f be       	out	0x3f, r0	; 63
     e8c:	2d bf       	out	0x3d, r18	; 61
     e8e:	01 c0       	rjmp	.+2      	; 0xe92 <TaskCreate+0xa6>
     e90:	80 e0       	ldi	r24, 0x00	; 0
     e92:	df 91       	pop	r29
     e94:	cf 91       	pop	r28
     e96:	1f 91       	pop	r17
     e98:	0f 91       	pop	r16
     e9a:	ef 90       	pop	r14
     e9c:	df 90       	pop	r13
     e9e:	cf 90       	pop	r12
     ea0:	bf 90       	pop	r11
     ea2:	af 90       	pop	r10
     ea4:	7f 90       	pop	r7
     ea6:	6f 90       	pop	r6
     ea8:	5f 90       	pop	r5
     eaa:	4f 90       	pop	r4
     eac:	08 95       	ret

00000eae <TaskSetStatus>:
     eae:	cf 93       	push	r28
     eb0:	df 93       	push	r29
     eb2:	9f ef       	ldi	r25, 0xFF	; 255
     eb4:	98 0f       	add	r25, r24
     eb6:	96 30       	cpi	r25, 0x06	; 6
     eb8:	98 f4       	brcc	.+38     	; 0xee0 <TaskSetStatus+0x32>
     eba:	90 e0       	ldi	r25, 0x00	; 0
     ebc:	01 97       	sbiw	r24, 0x01	; 1
     ebe:	21 e1       	ldi	r18, 0x11	; 17
     ec0:	28 9f       	mul	r18, r24
     ec2:	e0 01       	movw	r28, r0
     ec4:	29 9f       	mul	r18, r25
     ec6:	d0 0d       	add	r29, r0
     ec8:	11 24       	eor	r1, r1
     eca:	c4 5c       	subi	r28, 0xC4	; 196
     ecc:	dd 4f       	sbci	r29, 0xFD	; 253
     ece:	6b 87       	std	Y+11, r22	; 0x0b
     ed0:	61 30       	cpi	r22, 0x01	; 1
     ed2:	31 f4       	brne	.+12     	; 0xee0 <TaskSetStatus+0x32>
     ed4:	0e 94 09 08 	call	0x1012	; 0x1012 <TimerNow>
     ed8:	6b 83       	std	Y+3, r22	; 0x03
     eda:	7c 83       	std	Y+4, r23	; 0x04
     edc:	8d 83       	std	Y+5, r24	; 0x05
     ede:	9e 83       	std	Y+6, r25	; 0x06
     ee0:	df 91       	pop	r29
     ee2:	cf 91       	pop	r28
     ee4:	08 95       	ret

00000ee6 <TaskSetTimers>:
   }
}

void TaskSetTimers(tTaskId id, tTime start, tTime runEvery) {
     ee6:	0f 93       	push	r16
     ee8:	1f 93       	push	r17
     eea:	cf 93       	push	r28
//--- Global local variables ---//
static TASK g_tasks[TASK_MAX_TASKS];      // Total of tasks

//-- Task Helpers --//
static pTASK FindTask(tTaskId id) {
   if (id == 0 || id > TASK_MAX_TASKS) {
     eec:	9f ef       	ldi	r25, 0xFF	; 255
     eee:	98 0f       	add	r25, r24
     ef0:	96 30       	cpi	r25, 0x06	; 6
     ef2:	f0 f5       	brcc	.+124    	; 0xf70 <TaskSetTimers+0x8a>
      return NULL;
   }

   return &g_tasks[id-1];
     ef4:	90 e0       	ldi	r25, 0x00	; 0
     ef6:	01 97       	sbiw	r24, 0x01	; 1
}

void TaskSetTimers(tTaskId id, tTime start, tTime runEvery) {
   pTASK pTsk = FindTask(id);
   if (pTsk) {
      pTsk->start = start != 0 ? start : pTsk->start;
     ef8:	41 15       	cp	r20, r1
     efa:	51 05       	cpc	r21, r1
     efc:	61 05       	cpc	r22, r1
     efe:	71 05       	cpc	r23, r1
     f00:	69 f4       	brne	.+26     	; 0xf1c <TaskSetTimers+0x36>
     f02:	41 e1       	ldi	r20, 0x11	; 17
     f04:	48 9f       	mul	r20, r24
     f06:	f0 01       	movw	r30, r0
     f08:	49 9f       	mul	r20, r25
     f0a:	f0 0d       	add	r31, r0
     f0c:	11 24       	eor	r1, r1
     f0e:	e4 5c       	subi	r30, 0xC4	; 196
     f10:	fd 4f       	sbci	r31, 0xFD	; 253
     f12:	c3 81       	ldd	r28, Z+3	; 0x03
     f14:	b4 81       	ldd	r27, Z+4	; 0x04
     f16:	a5 81       	ldd	r26, Z+5	; 0x05
     f18:	46 81       	ldd	r20, Z+6	; 0x06
     f1a:	04 c0       	rjmp	.+8      	; 0xf24 <TaskSetTimers+0x3e>
     f1c:	c4 2f       	mov	r28, r20
     f1e:	b5 2f       	mov	r27, r21
     f20:	a6 2f       	mov	r26, r22
     f22:	47 2f       	mov	r20, r23
     f24:	51 e1       	ldi	r21, 0x11	; 17
     f26:	58 9f       	mul	r21, r24
     f28:	f0 01       	movw	r30, r0
     f2a:	59 9f       	mul	r21, r25
     f2c:	f0 0d       	add	r31, r0
     f2e:	11 24       	eor	r1, r1
     f30:	e4 5c       	subi	r30, 0xC4	; 196
     f32:	fd 4f       	sbci	r31, 0xFD	; 253
     f34:	c3 83       	std	Z+3, r28	; 0x03
     f36:	b4 83       	std	Z+4, r27	; 0x04
     f38:	a5 83       	std	Z+5, r26	; 0x05
     f3a:	46 83       	std	Z+6, r20	; 0x06
      pTsk->runEvery = runEvery != 0 ? runEvery : pTsk->runEvery;
     f3c:	01 15       	cp	r16, r1
     f3e:	11 05       	cpc	r17, r1
     f40:	21 05       	cpc	r18, r1
     f42:	31 05       	cpc	r19, r1
     f44:	29 f4       	brne	.+10     	; 0xf50 <TaskSetTimers+0x6a>
     f46:	67 81       	ldd	r22, Z+7	; 0x07
     f48:	50 85       	ldd	r21, Z+8	; 0x08
     f4a:	41 85       	ldd	r20, Z+9	; 0x09
     f4c:	22 85       	ldd	r18, Z+10	; 0x0a
     f4e:	04 c0       	rjmp	.+8      	; 0xf58 <TaskSetTimers+0x72>
     f50:	60 2f       	mov	r22, r16
     f52:	51 2f       	mov	r21, r17
     f54:	42 2f       	mov	r20, r18
     f56:	23 2f       	mov	r18, r19
     f58:	31 e1       	ldi	r19, 0x11	; 17
     f5a:	38 9f       	mul	r19, r24
     f5c:	f0 01       	movw	r30, r0
     f5e:	39 9f       	mul	r19, r25
     f60:	f0 0d       	add	r31, r0
     f62:	11 24       	eor	r1, r1
     f64:	e4 5c       	subi	r30, 0xC4	; 196
     f66:	fd 4f       	sbci	r31, 0xFD	; 253
     f68:	67 83       	std	Z+7, r22	; 0x07
     f6a:	50 87       	std	Z+8, r21	; 0x08
     f6c:	41 87       	std	Z+9, r20	; 0x09
     f6e:	22 87       	std	Z+10, r18	; 0x0a
   }
}
     f70:	cf 91       	pop	r28
     f72:	1f 91       	pop	r17
     f74:	0f 91       	pop	r16
     f76:	08 95       	ret

00000f78 <RunScheduler>:
/*** 

   Scheduler API

* ***/
void RunScheduler(void) {
     f78:	cf 92       	push	r12
     f7a:	df 92       	push	r13
     f7c:	ef 92       	push	r14
     f7e:	ff 92       	push	r15
     f80:	0f 93       	push	r16
     f82:	1f 93       	push	r17
     f84:	cf 93       	push	r28
     f86:	df 93       	push	r29
     f88:	cc e3       	ldi	r28, 0x3C	; 60
     f8a:	d2 e0       	ldi	r29, 0x02	; 2
      }

      // Execute?
      if (TimerElapsed(pTsk->start) >= pTsk->runEvery) {
          
         pTsk->status = TS_RUNNING;
     f8c:	02 e0       	ldi	r16, 0x02	; 2

   // Check all tasks
   for (int i = 0; i < TASK_MAX_TASKS; i++) {
      
      pTASK pTsk = &g_tasks[i];
      if (pTsk == NULL || pTsk->status != TS_READY) {
     f8e:	1b 85       	ldd	r17, Y+11	; 0x0b
     f90:	11 30       	cpi	r17, 0x01	; 1
     f92:	01 f5       	brne	.+64     	; 0xfd4 <RunScheduler+0x5c>
         continue;
      }

      // Execute?
      if (TimerElapsed(pTsk->start) >= pTsk->runEvery) {
     f94:	6b 81       	ldd	r22, Y+3	; 0x03
     f96:	7c 81       	ldd	r23, Y+4	; 0x04
     f98:	8d 81       	ldd	r24, Y+5	; 0x05
     f9a:	9e 81       	ldd	r25, Y+6	; 0x06
     f9c:	0e 94 15 08 	call	0x102a	; 0x102a <TimerElapsed>
     fa0:	cf 80       	ldd	r12, Y+7	; 0x07
     fa2:	d8 84       	ldd	r13, Y+8	; 0x08
     fa4:	e9 84       	ldd	r14, Y+9	; 0x09
     fa6:	fa 84       	ldd	r15, Y+10	; 0x0a
     fa8:	6c 15       	cp	r22, r12
     faa:	7d 05       	cpc	r23, r13
     fac:	8e 05       	cpc	r24, r14
     fae:	9f 05       	cpc	r25, r15
     fb0:	88 f0       	brcs	.+34     	; 0xfd4 <RunScheduler+0x5c>
          
         pTsk->status = TS_RUNNING;
     fb2:	0b 87       	std	Y+11, r16	; 0x0b
         pTsk->callback(pTsk);
     fb4:	ed 85       	ldd	r30, Y+13	; 0x0d
     fb6:	fe 85       	ldd	r31, Y+14	; 0x0e
     fb8:	ce 01       	movw	r24, r28
     fba:	09 95       	icall
         pTsk->start = TimerNow();
     fbc:	0e 94 09 08 	call	0x1012	; 0x1012 <TimerNow>
     fc0:	6b 83       	std	Y+3, r22	; 0x03
     fc2:	7c 83       	std	Y+4, r23	; 0x04
     fc4:	8d 83       	std	Y+5, r24	; 0x05
     fc6:	9e 83       	std	Y+6, r25	; 0x06

         // Periodic task are always running, aperiodic task run once and then stop until they are signal again
         if (pTsk->type == TT_PERIODIC) {
     fc8:	8c 85       	ldd	r24, Y+12	; 0x0c
     fca:	88 23       	and	r24, r24
     fcc:	11 f0       	breq	.+4      	; 0xfd2 <RunScheduler+0x5a>
            pTsk->status = TS_READY;
         }
         else {
            if (pTsk->status != TS_IDLE) {
     fce:	8b 85       	ldd	r24, Y+11	; 0x0b
     fd0:	81 11       	cpse	r24, r1
              pTsk->status = TS_READY;
     fd2:	1b 87       	std	Y+11, r17	; 0x0b
     fd4:	61 96       	adiw	r28, 0x11	; 17

* ***/
void RunScheduler(void) {

   // Check all tasks
   for (int i = 0; i < TASK_MAX_TASKS; i++) {
     fd6:	82 e0       	ldi	r24, 0x02	; 2
     fd8:	c2 3a       	cpi	r28, 0xA2	; 162
     fda:	d8 07       	cpc	r29, r24
     fdc:	c1 f6       	brne	.-80     	; 0xf8e <RunScheduler+0x16>
              pTsk->status = TS_READY;
            }
         }
      }
   }
}
     fde:	df 91       	pop	r29
     fe0:	cf 91       	pop	r28
     fe2:	1f 91       	pop	r17
     fe4:	0f 91       	pop	r16
     fe6:	ff 90       	pop	r15
     fe8:	ef 90       	pop	r14
     fea:	df 90       	pop	r13
     fec:	cf 90       	pop	r12
     fee:	08 95       	ret

00000ff0 <TimerInit>:
   OCR2A = 0xF9;

   // Start timer
   TCCR2B |= TIMER_DIV32_PRESCALER;
#else
   TCCR2 |= TIMER_CTC_MODE;
     ff0:	85 b5       	in	r24, 0x25	; 37
     ff2:	88 60       	ori	r24, 0x08	; 8
     ff4:	85 bd       	out	0x25, r24	; 37
   TIMSK |= TIMER_OUTPUT_COMPARE_IEA;
     ff6:	89 b7       	in	r24, 0x39	; 57
     ff8:	80 68       	ori	r24, 0x80	; 128
     ffa:	89 bf       	out	0x39, r24	; 57
   TCNT2 = 0x06;
     ffc:	86 e0       	ldi	r24, 0x06	; 6
     ffe:	84 bd       	out	0x24, r24	; 36
   OCR2 = 0xF9;
    1000:	89 ef       	ldi	r24, 0xF9	; 249
    1002:	83 bd       	out	0x23, r24	; 35

   // Start timer
   TCCR2 |= TIMER_DIV32_PRESCALER;
    1004:	85 b5       	in	r24, 0x25	; 37
    1006:	83 60       	ori	r24, 0x03	; 3
    1008:	85 bd       	out	0x25, r24	; 37
#endif

#if defined(DEBUG)
   USARTPrintString("TMR-Init\n\n");
    100a:	8d ef       	ldi	r24, 0xFD	; 253
    100c:	91 e0       	ldi	r25, 0x01	; 1
    100e:	0c 94 20 03 	jmp	0x640	; 0x640 <USARTPrintString>

00001012 <TimerNow>:
   RETURN: tTime. In milliseconds
*** */
tTime TimerNow(void) {
   tTime now = 0;

	ATOMIC_BLOCK(ATOMIC_RESTORESTATE) {
    1012:	2f b7       	in	r18, 0x3f	; 63
    return 1;
}

static __inline__ uint8_t __iCliRetVal(void)
{
    cli();
    1014:	f8 94       	cli
	   now = g_timeMills;
    1016:	60 91 a2 02 	lds	r22, 0x02A2	; 0x8002a2 <g_timeMills>
    101a:	70 91 a3 02 	lds	r23, 0x02A3	; 0x8002a3 <g_timeMills+0x1>
    101e:	80 91 a4 02 	lds	r24, 0x02A4	; 0x8002a4 <g_timeMills+0x2>
    1022:	90 91 a5 02 	lds	r25, 0x02A5	; 0x8002a5 <g_timeMills+0x3>
    (void)__s;
}

static __inline__ void __iRestore(const  uint8_t *__s)
{
    SREG = *__s;
    1026:	2f bf       	out	0x3f, r18	; 63
	}

	return now;
}
    1028:	08 95       	ret

0000102a <TimerElapsed>:
   DESCRIPTION: Get elapsed time from since to Now()

   PARAMETERS: tTime.
   RETURN: tTime. In milliseconds
*** */
tTime TimerElapsed(tTime since) {
    102a:	cf 92       	push	r12
    102c:	df 92       	push	r13
    102e:	ef 92       	push	r14
    1030:	ff 92       	push	r15
    1032:	0f 93       	push	r16
    1034:	1f 93       	push	r17
   tTime now = 0;

   ATOMIC_BLOCK(ATOMIC_RESTORESTATE) {
    1036:	2f b7       	in	r18, 0x3f	; 63
    return 1;
}

static __inline__ uint8_t __iCliRetVal(void)
{
    cli();
    1038:	f8 94       	cli
      now = g_timeMills;
    103a:	c0 90 a2 02 	lds	r12, 0x02A2	; 0x8002a2 <g_timeMills>
    103e:	d0 90 a3 02 	lds	r13, 0x02A3	; 0x8002a3 <g_timeMills+0x1>
    1042:	e0 90 a4 02 	lds	r14, 0x02A4	; 0x8002a4 <g_timeMills+0x2>
    1046:	f0 90 a5 02 	lds	r15, 0x02A5	; 0x8002a5 <g_timeMills+0x3>
    (void)__s;
}

static __inline__ void __iRestore(const  uint8_t *__s)
{
    SREG = *__s;
    104a:	2f bf       	out	0x3f, r18	; 63
    __asm__ volatile ("" ::: "memory");
    104c:	97 01       	movw	r18, r14
    104e:	86 01       	movw	r16, r12
    1050:	06 1b       	sub	r16, r22
    1052:	17 0b       	sbc	r17, r23
    1054:	28 0b       	sbc	r18, r24
    1056:	39 0b       	sbc	r19, r25
   }

   if (now >= since) {
    1058:	c6 16       	cp	r12, r22
    105a:	d7 06       	cpc	r13, r23
    105c:	e8 06       	cpc	r14, r24
    105e:	f9 06       	cpc	r15, r25
    1060:	18 f0       	brcs	.+6      	; 0x1068 <TimerElapsed+0x3e>
      return (now - since);
    1062:	c9 01       	movw	r24, r18
    1064:	b8 01       	movw	r22, r16
    1066:	06 c0       	rjmp	.+12     	; 0x1074 <TimerElapsed+0x4a>
   }

   // Rollover = unsigned long = 32bits
   //          = 0xFFFFFFFF     sec.   min. hrs. days
   //          = 4294967295ms / 1000 / 60 / 60 / 24 = 49.71 days running for a car, not even at Le Mans!
   return (now + (TIMER_MAX_TIME - since));
    1068:	c9 01       	movw	r24, r18
    106a:	b8 01       	movw	r22, r16
    106c:	61 50       	subi	r22, 0x01	; 1
    106e:	71 09       	sbc	r23, r1
    1070:	81 09       	sbc	r24, r1
    1072:	91 09       	sbc	r25, r1
}
    1074:	1f 91       	pop	r17
    1076:	0f 91       	pop	r16
    1078:	ff 90       	pop	r15
    107a:	ef 90       	pop	r14
    107c:	df 90       	pop	r13
    107e:	cf 90       	pop	r12
    1080:	08 95       	ret

00001082 <__vector_3>:
   RETURN: n/a
*** */
#if defined (__AVR_ATmega324P__)
ISR(TIMER2_COMPA_vect, ISR_BLOCK) {
#else
ISR(TIMER2_COMP_vect, ISR_BLOCK) {
    1082:	1f 92       	push	r1
    1084:	0f 92       	push	r0
    1086:	0f b6       	in	r0, 0x3f	; 63
    1088:	0f 92       	push	r0
    108a:	11 24       	eor	r1, r1
    108c:	8f 93       	push	r24
    108e:	9f 93       	push	r25
    1090:	af 93       	push	r26
    1092:	bf 93       	push	r27
#endif
   // Volatile variables must be read from memory on every access and not from register
	tTime tmp = g_timeMills;
    1094:	80 91 a2 02 	lds	r24, 0x02A2	; 0x8002a2 <g_timeMills>
    1098:	90 91 a3 02 	lds	r25, 0x02A3	; 0x8002a3 <g_timeMills+0x1>
    109c:	a0 91 a4 02 	lds	r26, 0x02A4	; 0x8002a4 <g_timeMills+0x2>
    10a0:	b0 91 a5 02 	lds	r27, 0x02A5	; 0x8002a5 <g_timeMills+0x3>

   // Increment counter
   g_timeMills = ++tmp;
    10a4:	01 96       	adiw	r24, 0x01	; 1
    10a6:	a1 1d       	adc	r26, r1
    10a8:	b1 1d       	adc	r27, r1
    10aa:	80 93 a2 02 	sts	0x02A2, r24	; 0x8002a2 <g_timeMills>
    10ae:	90 93 a3 02 	sts	0x02A3, r25	; 0x8002a3 <g_timeMills+0x1>
    10b2:	a0 93 a4 02 	sts	0x02A4, r26	; 0x8002a4 <g_timeMills+0x2>
    10b6:	b0 93 a5 02 	sts	0x02A5, r27	; 0x8002a5 <g_timeMills+0x3>

   // Reset timer counter base
   TCNT2 = 0x06;   
    10ba:	86 e0       	ldi	r24, 0x06	; 6
    10bc:	84 bd       	out	0x24, r24	; 36

   // Timer2 ISR wakeup automatic in SLEEP_MODE_PWR_SAVE mode. See datasheet
}
    10be:	bf 91       	pop	r27
    10c0:	af 91       	pop	r26
    10c2:	9f 91       	pop	r25
    10c4:	8f 91       	pop	r24
    10c6:	0f 90       	pop	r0
    10c8:	0f be       	out	0x3f, r0	; 63
    10ca:	0f 90       	pop	r0
    10cc:	1f 90       	pop	r1
    10ce:	18 95       	reti

000010d0 <TSGetTemperatureBeta>:
   PARAMETERS: void
   RETURN: uint8_t: Temperature in Celsius degrade. From: [-30..50] C / [-22..122] F
*** */
int8_t TSElectronicSpeedRegulator(void) {
   return (int8_t) TSGetTemperatureBeta(AN4_TEMP_SENS_ELEC_SPEED_REG, 0, 0, 0);
}
    10d0:	8f 92       	push	r8
    10d2:	9f 92       	push	r9
    10d4:	af 92       	push	r10
    10d6:	bf 92       	push	r11
    10d8:	cf 92       	push	r12
    10da:	df 92       	push	r13
    10dc:	ef 92       	push	r14
    10de:	ff 92       	push	r15
    10e0:	0f 93       	push	r16
    10e2:	1f 93       	push	r17
    10e4:	cf 93       	push	r28
    10e6:	df 93       	push	r29
    10e8:	6b 01       	movw	r12, r22
    10ea:	8a 01       	movw	r16, r20
    10ec:	e9 01       	movw	r28, r18
    10ee:	0e 94 bc 03 	call	0x778	; 0x778 <ADCReadAsValue>
    10f2:	7c 01       	movw	r14, r24
    10f4:	b6 01       	movw	r22, r12
    10f6:	80 e0       	ldi	r24, 0x00	; 0
    10f8:	90 e0       	ldi	r25, 0x00	; 0
    10fa:	0e 94 b1 0c 	call	0x1962	; 0x1962 <__floatunsisf>
    10fe:	4b 01       	movw	r8, r22
    1100:	5c 01       	movw	r10, r24
    1102:	b7 01       	movw	r22, r14
    1104:	80 e0       	ldi	r24, 0x00	; 0
    1106:	90 e0       	ldi	r25, 0x00	; 0
    1108:	0e 94 b1 0c 	call	0x1962	; 0x1962 <__floatunsisf>
    110c:	9b 01       	movw	r18, r22
    110e:	ac 01       	movw	r20, r24
    1110:	60 e0       	ldi	r22, 0x00	; 0
    1112:	70 e0       	ldi	r23, 0x00	; 0
    1114:	80 e8       	ldi	r24, 0x80	; 128
    1116:	94 e4       	ldi	r25, 0x44	; 68
    1118:	0e 94 09 0c 	call	0x1812	; 0x1812 <__divsf3>
    111c:	20 e0       	ldi	r18, 0x00	; 0
    111e:	30 e0       	ldi	r19, 0x00	; 0
    1120:	40 e8       	ldi	r20, 0x80	; 128
    1122:	5f e3       	ldi	r21, 0x3F	; 63
    1124:	0e 94 9c 0b 	call	0x1738	; 0x1738 <__subsf3>
    1128:	9b 01       	movw	r18, r22
    112a:	ac 01       	movw	r20, r24
    112c:	c5 01       	movw	r24, r10
    112e:	b4 01       	movw	r22, r8
    1130:	0e 94 09 0c 	call	0x1812	; 0x1812 <__divsf3>
    1134:	6b 01       	movw	r12, r22
    1136:	7c 01       	movw	r14, r24
    1138:	b8 01       	movw	r22, r16
    113a:	80 e0       	ldi	r24, 0x00	; 0
    113c:	90 e0       	ldi	r25, 0x00	; 0
    113e:	0e 94 b1 0c 	call	0x1962	; 0x1962 <__floatunsisf>
    1142:	9b 01       	movw	r18, r22
    1144:	ac 01       	movw	r20, r24
    1146:	c7 01       	movw	r24, r14
    1148:	b6 01       	movw	r22, r12
    114a:	0e 94 09 0c 	call	0x1812	; 0x1812 <__divsf3>
    114e:	0e 94 47 0d 	call	0x1a8e	; 0x1a8e <log>
    1152:	6b 01       	movw	r12, r22
    1154:	7c 01       	movw	r14, r24
    1156:	be 01       	movw	r22, r28
    1158:	80 e0       	ldi	r24, 0x00	; 0
    115a:	90 e0       	ldi	r25, 0x00	; 0
    115c:	0e 94 b1 0c 	call	0x1962	; 0x1962 <__floatunsisf>
    1160:	9b 01       	movw	r18, r22
    1162:	ac 01       	movw	r20, r24
    1164:	c7 01       	movw	r24, r14
    1166:	b6 01       	movw	r22, r12
    1168:	0e 94 09 0c 	call	0x1812	; 0x1812 <__divsf3>
    116c:	2f e0       	ldi	r18, 0x0F	; 15
    116e:	3f ec       	ldi	r19, 0xCF	; 207
    1170:	4b e5       	ldi	r20, 0x5B	; 91
    1172:	5b e3       	ldi	r21, 0x3B	; 59
    1174:	0e 94 9d 0b 	call	0x173a	; 0x173a <__addsf3>
    1178:	9b 01       	movw	r18, r22
    117a:	ac 01       	movw	r20, r24
    117c:	60 e0       	ldi	r22, 0x00	; 0
    117e:	70 e0       	ldi	r23, 0x00	; 0
    1180:	80 e8       	ldi	r24, 0x80	; 128
    1182:	9f e3       	ldi	r25, 0x3F	; 63
    1184:	0e 94 09 0c 	call	0x1812	; 0x1812 <__divsf3>
    1188:	23 e3       	ldi	r18, 0x33	; 51
    118a:	33 e9       	ldi	r19, 0x93	; 147
    118c:	48 e8       	ldi	r20, 0x88	; 136
    118e:	53 e4       	ldi	r21, 0x43	; 67
    1190:	0e 94 9c 0b 	call	0x1738	; 0x1738 <__subsf3>
    1194:	df 91       	pop	r29
    1196:	cf 91       	pop	r28
    1198:	1f 91       	pop	r17
    119a:	0f 91       	pop	r16
    119c:	ff 90       	pop	r15
    119e:	ef 90       	pop	r14
    11a0:	df 90       	pop	r13
    11a2:	cf 90       	pop	r12
    11a4:	bf 90       	pop	r11
    11a6:	af 90       	pop	r10
    11a8:	9f 90       	pop	r9
    11aa:	8f 90       	pop	r8
    11ac:	08 95       	ret

000011ae <TSPassenger>:
    11ae:	26 ea       	ldi	r18, 0xA6	; 166
    11b0:	3f e0       	ldi	r19, 0x0F	; 15
    11b2:	48 e9       	ldi	r20, 0x98	; 152
    11b4:	58 e0       	ldi	r21, 0x08	; 8
    11b6:	6c ed       	ldi	r22, 0xDC	; 220
    11b8:	75 e0       	ldi	r23, 0x05	; 5
    11ba:	80 e0       	ldi	r24, 0x00	; 0
    11bc:	90 e0       	ldi	r25, 0x00	; 0
    11be:	0e 94 68 08 	call	0x10d0	; 0x10d0 <TSGetTemperatureBeta>
    11c2:	0e 94 7b 0c 	call	0x18f6	; 0x18f6 <__fixsfsi>
    11c6:	86 2f       	mov	r24, r22
    11c8:	08 95       	ret

000011ca <TSOutsideMirror>:
    11ca:	21 e6       	ldi	r18, 0x61	; 97
    11cc:	3f e0       	ldi	r19, 0x0F	; 15
    11ce:	40 e1       	ldi	r20, 0x10	; 16
    11d0:	57 e2       	ldi	r21, 0x27	; 39
    11d2:	64 e7       	ldi	r22, 0x74	; 116
    11d4:	70 e4       	ldi	r23, 0x40	; 64
    11d6:	81 e0       	ldi	r24, 0x01	; 1
    11d8:	90 e0       	ldi	r25, 0x00	; 0
    11da:	0e 94 68 08 	call	0x10d0	; 0x10d0 <TSGetTemperatureBeta>
    11de:	0e 94 7b 0c 	call	0x18f6	; 0x18f6 <__fixsfsi>
    11e2:	86 2f       	mov	r24, r22
    11e4:	08 95       	ret

000011e6 <TSBottomBlended>:
    11e6:	21 e6       	ldi	r18, 0x61	; 97
    11e8:	3f e0       	ldi	r19, 0x0F	; 15
    11ea:	40 e1       	ldi	r20, 0x10	; 16
    11ec:	57 e2       	ldi	r21, 0x27	; 39
    11ee:	60 e5       	ldi	r22, 0x50	; 80
    11f0:	7f e0       	ldi	r23, 0x0F	; 15
    11f2:	82 e0       	ldi	r24, 0x02	; 2
    11f4:	90 e0       	ldi	r25, 0x00	; 0
    11f6:	0e 94 68 08 	call	0x10d0	; 0x10d0 <TSGetTemperatureBeta>
    11fa:	0e 94 7b 0c 	call	0x18f6	; 0x18f6 <__fixsfsi>
    11fe:	86 2f       	mov	r24, r22
    1200:	08 95       	ret

00001202 <TSTopBlended>:
    1202:	21 e6       	ldi	r18, 0x61	; 97
    1204:	3f e0       	ldi	r19, 0x0F	; 15
    1206:	40 e1       	ldi	r20, 0x10	; 16
    1208:	57 e2       	ldi	r21, 0x27	; 39
    120a:	60 e5       	ldi	r22, 0x50	; 80
    120c:	7f e0       	ldi	r23, 0x0F	; 15
    120e:	85 e0       	ldi	r24, 0x05	; 5
    1210:	90 e0       	ldi	r25, 0x00	; 0
    1212:	0e 94 68 08 	call	0x10d0	; 0x10d0 <TSGetTemperatureBeta>
    1216:	0e 94 7b 0c 	call	0x18f6	; 0x18f6 <__fixsfsi>
    121a:	86 2f       	mov	r24, r22
    121c:	08 95       	ret

0000121e <TempSensorsTask>:
                Read Top, Bottom, Passenger and Outside mirror temperature sensors for automatic temperature controls

   PARAMETERS: pTASK task. UNIT_STATE model unit controller 
   RETURN: void
*** */
void TempSensorsTask(pTASK task) {
    121e:	cf 93       	push	r28
    1220:	df 93       	push	r29
   // Get task parameter
   pTEMP_SENSORS_INFO pSensorInfo = (pTEMP_SENSORS_INFO) task->parameter;
    1222:	fc 01       	movw	r30, r24
    1224:	c7 85       	ldd	r28, Z+15	; 0x0f
    1226:	d0 89       	ldd	r29, Z+16	; 0x10
   if (pSensorInfo == NULL) {
    1228:	20 97       	sbiw	r28, 0x00	; 0
    122a:	61 f0       	breq	.+24     	; 0x1244 <TempSensorsTask+0x26>
      return;
   }

   // Read NTC sensors
   pSensorInfo->Passenger = TSPassenger();
    122c:	0e 94 d7 08 	call	0x11ae	; 0x11ae <TSPassenger>
    1230:	8b 83       	std	Y+3, r24	; 0x03
   pSensorInfo->OutsideMirror = TSOutsideMirror();
    1232:	0e 94 e5 08 	call	0x11ca	; 0x11ca <TSOutsideMirror>
    1236:	8a 83       	std	Y+2, r24	; 0x02
   pSensorInfo->BottomBlended = TSBottomBlended();
    1238:	0e 94 f3 08 	call	0x11e6	; 0x11e6 <TSBottomBlended>
    123c:	89 83       	std	Y+1, r24	; 0x01
   pSensorInfo->TopBlended = TSTopBlended();
    123e:	0e 94 01 09 	call	0x1202	; 0x1202 <TSTopBlended>
    1242:	88 83       	st	Y, r24

#if defined(DEBUG_TMPSNS)
    sprintf(str, "TMP_SENS-Task. Passgr: [%d] Outs Mirror: [%d] Bottom Blnd: [%d] Top Blnd: [%d]\n", pSensorInfo->Passenger, pSensorInfo->OutsideMirror, pSensorInfo->BottomBlended, pSensorInfo->TopBlended);
    USARTPrintString(str);
#endif
}
    1244:	df 91       	pop	r29
    1246:	cf 91       	pop	r28
    1248:	08 95       	ret

0000124a <ExtTempTask>:
   PARAMETERS: pTASK task. UNIT_STATE model for automatic controller 
   RETURN: void
*** */
void ExtTempTask(pTASK task) {
   // Get task parameter
   pUNIT_STATE pUnitState = (pUNIT_STATE) task->parameter;
    124a:	dc 01       	movw	r26, r24
    124c:	1f 96       	adiw	r26, 0x0f	; 15
    124e:	ed 91       	ld	r30, X+
    1250:	fc 91       	ld	r31, X
    1252:	50 97       	sbiw	r26, 0x10	; 16
   if (pUnitState == NULL) {
    1254:	30 97       	sbiw	r30, 0x00	; 0
    1256:	31 f0       	breq	.+12     	; 0x1264 <ExtTempTask+0x1a>
      return;
   }

   // Stop Aperiodic task
   task->status = TS_IDLE;
    1258:	1b 96       	adiw	r26, 0x0b	; 11
    125a:	1c 92       	st	X, r1

   // SIGNAL: Extern Temperature display changed
   pUnitState->flags.fExtTemp = UNIT_FLAG_OFF;
    125c:	82 85       	ldd	r24, Z+10	; 0x0a
   pUnitState->flags.fUI = UNIT_FLAG_ON;
    125e:	8f 7b       	andi	r24, 0xBF	; 191
    1260:	81 60       	ori	r24, 0x01	; 1
    1262:	82 87       	std	Z+10, r24	; 0x0a
    1264:	08 95       	ret

00001266 <UnitInit>:

   PARAMETERS: void
   RETURN: void
*** */
void UnitInit(pUNIT_STATE pUnitState, pADM_POSITION_INFO pPosInfo, 
              pESR_SPEED_INFO pSpeedInfo, pTEMP_SENSORS_INFO pSensorInfo) {
    1266:	cf 93       	push	r28
    1268:	df 93       	push	r29
    126a:	ec 01       	movw	r28, r24
   
   // Initialize data structures 
   memset(pUnitState, 0, sizeof(UNIT_STATE));
    126c:	8b e0       	ldi	r24, 0x0B	; 11
    126e:	fe 01       	movw	r30, r28
    1270:	11 92       	st	Z+, r1
    1272:	8a 95       	dec	r24
    1274:	e9 f7       	brne	.-6      	; 0x1270 <UnitInit+0xa>
   memset(pPosInfo, 0, sizeof(ADM_POSITION_INFO));
    1276:	87 e0       	ldi	r24, 0x07	; 7
    1278:	fb 01       	movw	r30, r22
    127a:	11 92       	st	Z+, r1
    127c:	8a 95       	dec	r24
    127e:	e9 f7       	brne	.-6      	; 0x127a <UnitInit+0x14>
   memset(pSpeedInfo, 0, sizeof(ESR_SPEED_INFO));
    1280:	83 e0       	ldi	r24, 0x03	; 3
    1282:	fa 01       	movw	r30, r20
    1284:	11 92       	st	Z+, r1
    1286:	8a 95       	dec	r24
    1288:	e9 f7       	brne	.-6      	; 0x1284 <UnitInit+0x1e>
   memset(pSensorInfo, 0, sizeof(TEMP_SENSORS_INFO));
    128a:	84 e0       	ldi	r24, 0x04	; 4
    128c:	f9 01       	movw	r30, r18
    128e:	11 92       	st	Z+, r1
    1290:	8a 95       	dec	r24
    1292:	e9 f7       	brne	.-6      	; 0x128e <UnitInit+0x28>

   // Unit resetting
   pUnitState->Status = US_RESET;
    1294:	85 e0       	ldi	r24, 0x05	; 5
    1296:	88 83       	st	Y, r24

   // Load unit last state from EEPROM data. From AUTOmatic or Working last state
   pUnitState->Auto = EEPROMRead_byte(EEADDRSS_US_AUTOMATIC_WRK);
    1298:	89 e0       	ldi	r24, 0x09	; 9
    129a:	90 e0       	ldi	r25, 0x00	; 0
    129c:	0e 94 a4 03 	call	0x748	; 0x748 <EEPROMRead_byte>
    12a0:	89 83       	std	Y+1, r24	; 0x01
   pUnitState->Economic = EEPROMRead_byte(EEADDRSS_US_ECONOMIC_WRK);
    12a2:	8a e0       	ldi	r24, 0x0A	; 10
    12a4:	90 e0       	ldi	r25, 0x00	; 0
    12a6:	0e 94 a4 03 	call	0x748	; 0x748 <EEPROMRead_byte>
    12aa:	8a 83       	std	Y+2, r24	; 0x02
   pUnitState->Recirculate = EEPROMRead_byte(EEADDRSS_US_RECIRCULATE_WRK);
    12ac:	8b e0       	ldi	r24, 0x0B	; 11
    12ae:	90 e0       	ldi	r25, 0x00	; 0
    12b0:	0e 94 a4 03 	call	0x748	; 0x748 <EEPROMRead_byte>
    12b4:	8b 83       	std	Y+3, r24	; 0x03
   pUnitState->AirDistMotor = EEPROMRead_byte(EEADDRSS_US_AIR_DIST_MOTOR_WRK);
    12b6:	8c e0       	ldi	r24, 0x0C	; 12
    12b8:	90 e0       	ldi	r25, 0x00	; 0
    12ba:	0e 94 a4 03 	call	0x748	; 0x748 <EEPROMRead_byte>
    12be:	8e 83       	std	Y+6, r24	; 0x06
   pUnitState->SelectedTemp = EEPROMRead_byte(EEADDRSS_US_TEMPERATURE_WRK);
    12c0:	8f e0       	ldi	r24, 0x0F	; 15
    12c2:	90 e0       	ldi	r25, 0x00	; 0
    12c4:	0e 94 a4 03 	call	0x748	; 0x748 <EEPROMRead_byte>
    12c8:	8c 83       	std	Y+4, r24	; 0x04
   pUnitState->Speed = EEPROMRead_byte(EEADDRSS_US_SPEED_WRK);
    12ca:	80 e1       	ldi	r24, 0x10	; 16
    12cc:	90 e0       	ldi	r25, 0x00	; 0
    12ce:	0e 94 a4 03 	call	0x748	; 0x748 <EEPROMRead_byte>
    12d2:	8d 83       	std	Y+5, r24	; 0x05

   // Not implemented yet!
   //pUnitState->CockBlendMotor = EEPROMRead_byte(EEADDRSS_US_COCK_BLEND_MOTOR_WRK);
   //pUnitState->AirIntakeMotor = EEPROMRead_byte(EEADDRSS_US_AIR_INTAKE_MOTOR_WRK);
}
    12d4:	df 91       	pop	r29
    12d6:	cf 91       	pop	r28
    12d8:	08 95       	ret

000012da <UnitSaveState>:
   DESCRIPTION: This function save to EEPROM memory the last unit operating state

   PARAMETERS: pUNIT_STATE
   RETURN: void
*** */
void UnitSaveState(pUNIT_STATE pUnitState) {
    12da:	cf 93       	push	r28
    12dc:	df 93       	push	r29
    12de:	ec 01       	movw	r28, r24

   // This is unit dirty state
   EEPROMWrite_byte(EEADDRSS_US_LAST_STATE_WRK, pUnitState->Status);
    12e0:	68 81       	ld	r22, Y
    12e2:	81 e1       	ldi	r24, 0x11	; 17
    12e4:	90 e0       	ldi	r25, 0x00	; 0
    12e6:	0e 94 a6 03 	call	0x74c	; 0x74c <EEPROMWrite_byte>

   // Last operating unit state
   EEPROMWrite_byte(EEADDRSS_US_AUTOMATIC_WRK, pUnitState->Auto);
    12ea:	69 81       	ldd	r22, Y+1	; 0x01
    12ec:	89 e0       	ldi	r24, 0x09	; 9
    12ee:	90 e0       	ldi	r25, 0x00	; 0
    12f0:	0e 94 a6 03 	call	0x74c	; 0x74c <EEPROMWrite_byte>
   EEPROMWrite_byte(EEADDRSS_US_ECONOMIC_WRK, pUnitState->Economic);
    12f4:	6a 81       	ldd	r22, Y+2	; 0x02
    12f6:	8a e0       	ldi	r24, 0x0A	; 10
    12f8:	90 e0       	ldi	r25, 0x00	; 0
    12fa:	0e 94 a6 03 	call	0x74c	; 0x74c <EEPROMWrite_byte>
   EEPROMWrite_byte(EEADDRSS_US_RECIRCULATE_WRK, pUnitState->Recirculate);
    12fe:	6b 81       	ldd	r22, Y+3	; 0x03
    1300:	8b e0       	ldi	r24, 0x0B	; 11
    1302:	90 e0       	ldi	r25, 0x00	; 0
    1304:	0e 94 a6 03 	call	0x74c	; 0x74c <EEPROMWrite_byte>
   EEPROMWrite_byte(EEADDRSS_US_TEMPERATURE_WRK, pUnitState->SelectedTemp);
    1308:	6c 81       	ldd	r22, Y+4	; 0x04
    130a:	8f e0       	ldi	r24, 0x0F	; 15
    130c:	90 e0       	ldi	r25, 0x00	; 0
    130e:	0e 94 a6 03 	call	0x74c	; 0x74c <EEPROMWrite_byte>
   EEPROMWrite_byte(EEADDRSS_US_SPEED_WRK, pUnitState->Speed);
    1312:	6d 81       	ldd	r22, Y+5	; 0x05
    1314:	80 e1       	ldi	r24, 0x10	; 16
    1316:	90 e0       	ldi	r25, 0x00	; 0
    1318:	0e 94 a6 03 	call	0x74c	; 0x74c <EEPROMWrite_byte>
   EEPROMWrite_byte(EEADDRSS_US_AIR_DIST_MOTOR_WRK, pUnitState->AirDistMotor);
    131c:	6e 81       	ldd	r22, Y+6	; 0x06
    131e:	8c e0       	ldi	r24, 0x0C	; 12
    1320:	90 e0       	ldi	r25, 0x00	; 0
}
    1322:	df 91       	pop	r29
    1324:	cf 91       	pop	r28
   EEPROMWrite_byte(EEADDRSS_US_AUTOMATIC_WRK, pUnitState->Auto);
   EEPROMWrite_byte(EEADDRSS_US_ECONOMIC_WRK, pUnitState->Economic);
   EEPROMWrite_byte(EEADDRSS_US_RECIRCULATE_WRK, pUnitState->Recirculate);
   EEPROMWrite_byte(EEADDRSS_US_TEMPERATURE_WRK, pUnitState->SelectedTemp);
   EEPROMWrite_byte(EEADDRSS_US_SPEED_WRK, pUnitState->Speed);
   EEPROMWrite_byte(EEADDRSS_US_AIR_DIST_MOTOR_WRK, pUnitState->AirDistMotor);
    1326:	0c 94 a6 03 	jmp	0x74c	; 0x74c <EEPROMWrite_byte>

0000132a <UnitLastState>:
   DESCRIPTION: Setup unit to the last operating state

   PARAMETERS: pUNIT_STATE
   RETURN: void
*** */
void UnitLastState(pUNIT_STATE pUnitState) {
    132a:	cf 93       	push	r28
    132c:	df 93       	push	r29
    132e:	ec 01       	movw	r28, r24

   // Read last state saved
   uint8_t lastState = EEPROMRead_byte(EEADDRSS_US_LAST_STATE_WRK);
    1330:	81 e1       	ldi	r24, 0x11	; 17
    1332:	90 e0       	ldi	r25, 0x00	; 0
    1334:	0e 94 a4 03 	call	0x748	; 0x748 <EEPROMRead_byte>

   // If last state is ON, mean that ignition key was turned from MAR to STOP without pressing unit OFF button
   if (lastState == US_ON) {      
    1338:	81 30       	cpi	r24, 0x01	; 1
    133a:	31 f4       	brne	.+12     	; 0x1348 <UnitLastState+0x1e>
      pUnitState->Status = US_ON;   // Turn unit On
    133c:	88 83       	st	Y, r24

      // SIGNAL: Update Electronic Speed Regulator (Blower Speed)
      pUnitState->flags.fSpeed = UNIT_FLAG_ON;
    133e:	8a 85       	ldd	r24, Y+10	; 0x0a
      
      // SIGNAL: Update Air Dist. Motor position
      pUnitState->flags.fAirDistMotor = UNIT_FLAG_ON;
    1340:	80 62       	ori	r24, 0x20	; 32
    1342:	82 60       	ori	r24, 0x02	; 2
    1344:	8a 87       	std	Y+10, r24	; 0x0a
    1346:	01 c0       	rjmp	.+2      	; 0x134a <UnitLastState+0x20>
   }
   else { 
      pUnitState->Status = US_OFF;
    1348:	18 82       	st	Y, r1
   }

   // SIGNAL: Update User Interface
   pUnitState->flags.fUI = UNIT_FLAG_ON;
    134a:	8a 85       	ldd	r24, Y+10	; 0x0a
    134c:	81 60       	ori	r24, 0x01	; 1
    134e:	8a 87       	std	Y+10, r24	; 0x0a
}
    1350:	df 91       	pop	r29
    1352:	cf 91       	pop	r28
    1354:	08 95       	ret

00001356 <UnitOff>:
   DESCRIPTION: Set off A/A Unit state

   PARAMETERS: void
   RETURN: void
*** */
void UnitOff(pUNIT_STATE pUnitState) {
    1356:	fc 01       	movw	r30, r24

   if (pUnitState->Status == US_ON) {
    1358:	80 81       	ld	r24, Z
    135a:	81 30       	cpi	r24, 0x01	; 1
    135c:	29 f4       	brne	.+10     	; 0x1368 <UnitOff+0x12>
      pUnitState->Status = US_OFF;
    135e:	10 82       	st	Z, r1

      // SIGNAL: Unit controller state changed
      pUnitState->flags.fPassengerTemp = UNIT_FLAG_OFF;     //No temperature display
    1360:	82 85       	ldd	r24, Z+10	; 0x0a
      pUnitState->flags.fAirDistMotor = UNIT_FLAG_OFF;      //ADM No move
      pUnitState->flags.fExtTemp = UNIT_FLAG_OFF;           //No extern temperature display
      pUnitState->flags.fSpeed = UNIT_FLAG_ON;              //Shutdown electronic speed regulator
    1362:	8d 7a       	andi	r24, 0xAD	; 173
    1364:	80 62       	ori	r24, 0x20	; 32
    1366:	82 87       	std	Z+10, r24	; 0x0a
   }

   // SIGNAL: Update User Interface
   pUnitState->flags.fUI = UNIT_FLAG_ON;
    1368:	82 85       	ldd	r24, Z+10	; 0x0a
    136a:	81 60       	ori	r24, 0x01	; 1
    136c:	82 87       	std	Z+10, r24	; 0x0a
    136e:	08 95       	ret

00001370 <UnitAutomatic>:
   DESCRIPTION: Change to AUTOmatic mode

   PARAMETERS: pUNIT_STATE pUnitState. Unit state
   RETURN: void
*** */
void UnitAutomatic(pUNIT_STATE pUnitState) {
    1370:	cf 93       	push	r28
    1372:	df 93       	push	r29
    1374:	ec 01       	movw	r28, r24
   
   // If previous status was on, toggle
   if (pUnitState->Status == US_ON) {
    1376:	88 81       	ld	r24, Y
    1378:	81 30       	cpi	r24, 0x01	; 1
    137a:	21 f4       	brne	.+8      	; 0x1384 <UnitAutomatic+0x14>
    137c:	99 81       	ldd	r25, Y+1	; 0x01
    137e:	91 70       	andi	r25, 0x01	; 1
    1380:	89 27       	eor	r24, r25
      pUnitState->Auto ^= (1 | pUnitState->Auto);
    1382:	89 83       	std	Y+1, r24	; 0x01
   }

   // Is AUTOmatic pUnitState? then, set AUTOmatic mode
   if (pUnitState->Auto) {
    1384:	89 81       	ldd	r24, Y+1	; 0x01
    1386:	88 23       	and	r24, r24
    1388:	e9 f0       	breq	.+58     	; 0x13c4 <UnitAutomatic+0x54>
      pUnitState->Economic = EEPROMRead_byte(EEADDRSS_US_ECONOMIC);
    138a:	81 e0       	ldi	r24, 0x01	; 1
    138c:	90 e0       	ldi	r25, 0x00	; 0
    138e:	0e 94 a4 03 	call	0x748	; 0x748 <EEPROMRead_byte>
    1392:	8a 83       	std	Y+2, r24	; 0x02
      pUnitState->Recirculate = EEPROMRead_byte(EEADDRSS_US_RECIRCULATE);
    1394:	82 e0       	ldi	r24, 0x02	; 2
    1396:	90 e0       	ldi	r25, 0x00	; 0
    1398:	0e 94 a4 03 	call	0x748	; 0x748 <EEPROMRead_byte>
    139c:	8b 83       	std	Y+3, r24	; 0x03
      pUnitState->AirDistMotor = EEPROMRead_byte(EEADDRSS_US_AIR_DIST_MOTOR);
    139e:	83 e0       	ldi	r24, 0x03	; 3
    13a0:	90 e0       	ldi	r25, 0x00	; 0
    13a2:	0e 94 a4 03 	call	0x748	; 0x748 <EEPROMRead_byte>
    13a6:	8e 83       	std	Y+6, r24	; 0x06
      pUnitState->SelectedTemp = EEPROMRead_byte(EEADDRSS_US_TEMPERATURE);
    13a8:	86 e0       	ldi	r24, 0x06	; 6
    13aa:	90 e0       	ldi	r25, 0x00	; 0
    13ac:	0e 94 a4 03 	call	0x748	; 0x748 <EEPROMRead_byte>
    13b0:	8c 83       	std	Y+4, r24	; 0x04
      pUnitState->Speed = EEPROMRead_byte(EEADDRSS_US_SPEED);
    13b2:	87 e0       	ldi	r24, 0x07	; 7
    13b4:	90 e0       	ldi	r25, 0x00	; 0
    13b6:	0e 94 a4 03 	call	0x748	; 0x748 <EEPROMRead_byte>
    13ba:	8d 83       	std	Y+5, r24	; 0x05
      //Not implemented yet!
      //pUnitState->CockBlendMotor = EEPROMRead_byte(EEADDRSS_US_COCK_BLEND_MOTOR); //Automatic function contolled by speed/temperature
      //pUnitState->AirIntakeMotor = EEPROMRead_byte(EEADDRSS_US_AIR_INTAKE_MOTOR); //Controlled by recirculate button and speed/temperature

      // SIGNAL: Air Distribution Motor position
      pUnitState->flags.fAirDistMotor = UNIT_FLAG_ON;
    13bc:	8a 85       	ldd	r24, Y+10	; 0x0a
      pUnitState->flags.fExtTemp = UNIT_FLAG_OFF;
    13be:	82 60       	ori	r24, 0x02	; 2
    13c0:	8f 7b       	andi	r24, 0xBF	; 191
    13c2:	8a 87       	std	Y+10, r24	; 0x0a
   }

   // SIGNAL: Unit controller state changed
   pUnitState->Status = US_ON;
    13c4:	81 e0       	ldi	r24, 0x01	; 1
    13c6:	88 83       	st	Y, r24
   pUnitState->flags.fSpeed = UNIT_FLAG_ON;
    13c8:	8a 85       	ldd	r24, Y+10	; 0x0a
   
   // SIGNAL: Update User Interface
   pUnitState->flags.fUI = UNIT_FLAG_ON;
    13ca:	80 62       	ori	r24, 0x20	; 32
    13cc:	81 60       	ori	r24, 0x01	; 1
    13ce:	8a 87       	std	Y+10, r24	; 0x0a
}
    13d0:	df 91       	pop	r29
    13d2:	cf 91       	pop	r28
    13d4:	08 95       	ret

000013d6 <UnitEconomic>:
   DESCRIPTION: Change to ECOnomics mode

   PARAMETERS: pUNIT_STATE pUnitState. Unit state
   RETURN: void
*** */
void UnitEconomic(pUNIT_STATE pUnitState) {   
    13d6:	fc 01       	movw	r30, r24
   // Set AUTOmatic off
   pUnitState->Auto = UNIT_AUTO_OFF;
    13d8:	11 82       	std	Z+1, r1	; 0x01
   
   // If previous status was on, toggle
   if (pUnitState->Status == US_ON) {
    13da:	80 81       	ld	r24, Z
    13dc:	81 30       	cpi	r24, 0x01	; 1
    13de:	21 f4       	brne	.+8      	; 0x13e8 <UnitEconomic+0x12>
    13e0:	92 81       	ldd	r25, Z+2	; 0x02
    13e2:	91 70       	andi	r25, 0x01	; 1
    13e4:	89 27       	eor	r24, r25
    13e6:	01 c0       	rjmp	.+2      	; 0x13ea <UnitEconomic+0x14>
      pUnitState->Economic ^= (1 | pUnitState->Economic);
   }      
   else {
      pUnitState->Economic = UNIT_ECON_ON;
    13e8:	81 e0       	ldi	r24, 0x01	; 1
    13ea:	82 83       	std	Z+2, r24	; 0x02
   }

   // SIGNAL: Unit controller state changed
   pUnitState->Status = US_ON;
    13ec:	81 e0       	ldi	r24, 0x01	; 1
    13ee:	80 83       	st	Z, r24
   pUnitState->flags.fSpeed = UNIT_FLAG_ON;
    13f0:	82 85       	ldd	r24, Z+10	; 0x0a
   
   // SIGNAL: Update User Interface
   pUnitState->flags.fUI = UNIT_FLAG_ON;
    13f2:	80 62       	ori	r24, 0x20	; 32
    13f4:	81 60       	ori	r24, 0x01	; 1
    13f6:	82 87       	std	Z+10, r24	; 0x0a
    13f8:	08 95       	ret

000013fa <UnitRecirculate>:
   DESCRIPTION: Change to RECIRculate mode

   PARAMETERS: pUNIT_STATE pUnitState. Unit state
   RETURN: void
*** */
void UnitRecirculate(pUNIT_STATE pUnitState) {
    13fa:	fc 01       	movw	r30, r24
   
   // Set AUTOmatic off
   pUnitState->Auto = UNIT_AUTO_OFF;
    13fc:	11 82       	std	Z+1, r1	; 0x01
   
   // If previous status was on, toggle
   if (pUnitState->Status == US_ON) {
    13fe:	80 81       	ld	r24, Z
    1400:	81 30       	cpi	r24, 0x01	; 1
    1402:	21 f4       	brne	.+8      	; 0x140c <UnitRecirculate+0x12>
    1404:	93 81       	ldd	r25, Z+3	; 0x03
    1406:	91 70       	andi	r25, 0x01	; 1
    1408:	89 27       	eor	r24, r25
    140a:	01 c0       	rjmp	.+2      	; 0x140e <UnitRecirculate+0x14>
      pUnitState->Recirculate ^= (1 | pUnitState->Recirculate);
   }
   else {
      pUnitState->Recirculate = UNIT_RECI_ON;
    140c:	81 e0       	ldi	r24, 0x01	; 1
    140e:	83 83       	std	Z+3, r24	; 0x03
   }

   // SIGNAL: Unit controller state changed
   pUnitState->Status = US_ON;
    1410:	81 e0       	ldi	r24, 0x01	; 1
    1412:	80 83       	st	Z, r24
   pUnitState->flags.fSpeed = UNIT_FLAG_ON;
    1414:	82 85       	ldd	r24, Z+10	; 0x0a

   // SIGNAL: Update User Interface
   pUnitState->flags.fUI = UNIT_FLAG_ON;
    1416:	80 62       	ori	r24, 0x20	; 32
    1418:	81 60       	ori	r24, 0x01	; 1
    141a:	82 87       	std	Z+10, r24	; 0x0a
    141c:	08 95       	ret

0000141e <UnitTempInc>:
   DESCRIPTION: Increment passenger compartment temperature one unit 

   PARAMETERS: pUNIT_STATE pUnitState. Unit state
   RETURN: void
*** */
void UnitTempInc(pUNIT_STATE pUnitState) {
    141e:	fc 01       	movw	r30, r24
   
   // Set AUTOmatic off
   pUnitState->Auto = UNIT_AUTO_OFF;
    1420:	11 82       	std	Z+1, r1	; 0x01
   
   // If previous status was on change temp
   if (pUnitState->Status == US_ON) {
    1422:	80 81       	ld	r24, Z
    1424:	81 30       	cpi	r24, 0x01	; 1
    1426:	51 f4       	brne	.+20     	; 0x143c <UnitTempInc+0x1e>
      if (++pUnitState->SelectedTemp > UNIT_TEMP_HIGH) {
    1428:	84 81       	ldd	r24, Z+4	; 0x04
    142a:	8f 5f       	subi	r24, 0xFF	; 255
    142c:	82 32       	cpi	r24, 0x22	; 34
    142e:	08 f0       	brcs	.+2      	; 0x1432 <UnitTempInc+0x14>
         pUnitState->SelectedTemp = UNIT_TEMP_HIGH;
    1430:	81 e2       	ldi	r24, 0x21	; 33
    1432:	84 83       	std	Z+4, r24	; 0x04
      }

      // SIGNAL: Passenger Temperature changed
      pUnitState->flags.fPassengerTemp = UNIT_FLAG_ON;
    1434:	82 85       	ldd	r24, Z+10	; 0x0a
      pUnitState->flags.fExtTemp = UNIT_FLAG_OFF;
    1436:	80 61       	ori	r24, 0x10	; 16
    1438:	8f 7b       	andi	r24, 0xBF	; 191
    143a:	82 87       	std	Z+10, r24	; 0x0a
   }

   // SIGNAL: Unit controller state changed
   pUnitState->Status = US_ON;
    143c:	81 e0       	ldi	r24, 0x01	; 1
    143e:	80 83       	st	Z, r24
   pUnitState->flags.fSpeed = UNIT_FLAG_ON;
    1440:	82 85       	ldd	r24, Z+10	; 0x0a

   // SIGNAL: Update User Interface
   pUnitState->flags.fUI = UNIT_FLAG_ON;
    1442:	80 62       	ori	r24, 0x20	; 32
    1444:	81 60       	ori	r24, 0x01	; 1
    1446:	82 87       	std	Z+10, r24	; 0x0a
    1448:	08 95       	ret

0000144a <UnitTempDec>:
   DESCRIPTION: Decrement passenger compartment temperature one unit 

   PARAMETERS: pUNIT_STATE pUnitState. Unit state
   RETURN: void
*** */
void UnitTempDec(pUNIT_STATE pUnitState) {
    144a:	fc 01       	movw	r30, r24
   
   // Set AUTOmatic off
   pUnitState->Auto = UNIT_AUTO_OFF;
    144c:	11 82       	std	Z+1, r1	; 0x01
   
   // If previous status was on change temp
   if (pUnitState->Status == US_ON) {
    144e:	80 81       	ld	r24, Z
    1450:	81 30       	cpi	r24, 0x01	; 1
    1452:	51 f4       	brne	.+20     	; 0x1468 <UnitTempDec+0x1e>
      if (--pUnitState->SelectedTemp < UNIT_TEMP_LOW) {
    1454:	84 81       	ldd	r24, Z+4	; 0x04
    1456:	81 50       	subi	r24, 0x01	; 1
    1458:	81 31       	cpi	r24, 0x11	; 17
    145a:	08 f4       	brcc	.+2      	; 0x145e <UnitTempDec+0x14>
         pUnitState->SelectedTemp = UNIT_TEMP_LOW;
    145c:	81 e1       	ldi	r24, 0x11	; 17
    145e:	84 83       	std	Z+4, r24	; 0x04
      }

      // SIGNAL: Passenger Temperature changed
      pUnitState->flags.fPassengerTemp = UNIT_FLAG_ON;
    1460:	82 85       	ldd	r24, Z+10	; 0x0a
      pUnitState->flags.fExtTemp = UNIT_FLAG_OFF;
    1462:	80 61       	ori	r24, 0x10	; 16
    1464:	8f 7b       	andi	r24, 0xBF	; 191
    1466:	82 87       	std	Z+10, r24	; 0x0a
   }

   // SIGNAL: Unit controller state changed
   pUnitState->Status = US_ON;
    1468:	81 e0       	ldi	r24, 0x01	; 1
    146a:	80 83       	st	Z, r24
   pUnitState->flags.fSpeed = UNIT_FLAG_ON;
    146c:	82 85       	ldd	r24, Z+10	; 0x0a

   // SIGNAL: Update User Interface
   pUnitState->flags.fUI = UNIT_FLAG_ON;
    146e:	80 62       	ori	r24, 0x20	; 32
    1470:	81 60       	ori	r24, 0x01	; 1
    1472:	82 87       	std	Z+10, r24	; 0x0a
    1474:	08 95       	ret

00001476 <UnitExternTemp>:
   DESCRIPTION: Show extern temperature info

   PARAMETERS: pUNIT_STATE pUnitState. Unit state
   RETURN: void
*** */
void UnitExternTemp(pUNIT_STATE pUnitState) {
    1476:	fc 01       	movw	r30, r24
   
   pUnitState->flags.fExtTemp ^= (1 | pUnitState->flags.fExtTemp);
    1478:	92 85       	ldd	r25, Z+10	; 0x0a
    147a:	96 fb       	bst	r25, 6
    147c:	88 27       	eor	r24, r24
    147e:	80 f9       	bld	r24, 0
    1480:	21 e0       	ldi	r18, 0x01	; 1
    1482:	28 27       	eor	r18, r24
    1484:	20 fb       	bst	r18, 0
    1486:	96 f9       	bld	r25, 6

   //SIGNAL: Extern Temperature display
   pUnitState->flags.fUI = UNIT_FLAG_ON;
    1488:	91 60       	ori	r25, 0x01	; 1
    148a:	92 87       	std	Z+10, r25	; 0x0a
    148c:	08 95       	ret

0000148e <UnitSpeedInc>:
                         New Speed = 0b0000-0010 (0x02) + 1 = 0b0000-0011 (0x03)

   PARAMETERS: pUNIT_STATE pUnitState. Unit state
   RETURN: void
*** */
void UnitSpeedInc(pUNIT_STATE pUnitState) {
    148e:	fc 01       	movw	r30, r24
   
   // Set AUTOmatic off
   pUnitState->Auto = UNIT_AUTO_OFF;
    1490:	11 82       	std	Z+1, r1	; 0x01

   // If previous status was on change speed
   if (pUnitState->Status == US_ON) {
    1492:	80 81       	ld	r24, Z
    1494:	81 30       	cpi	r24, 0x01	; 1
    1496:	29 f4       	brne	.+10     	; 0x14a2 <UnitSpeedInc+0x14>
      if (pUnitState->Speed < ESR_SPEED_8) {
    1498:	85 81       	ldd	r24, Z+5	; 0x05
    149a:	88 30       	cpi	r24, 0x08	; 8
    149c:	10 f4       	brcc	.+4      	; 0x14a2 <UnitSpeedInc+0x14>
         pUnitState->Speed++;
    149e:	8f 5f       	subi	r24, 0xFF	; 255
    14a0:	85 83       	std	Z+5, r24	; 0x05
      }
   }

   // SIGNAL: Unit controller state changed
   pUnitState->Status = US_ON;
    14a2:	81 e0       	ldi	r24, 0x01	; 1
    14a4:	80 83       	st	Z, r24
   pUnitState->flags.fSpeed = UNIT_FLAG_ON;
    14a6:	82 85       	ldd	r24, Z+10	; 0x0a

   // SIGNAL: Update User Interface
   pUnitState->flags.fUI = UNIT_FLAG_ON;
    14a8:	80 62       	ori	r24, 0x20	; 32
    14aa:	81 60       	ori	r24, 0x01	; 1
    14ac:	82 87       	std	Z+10, r24	; 0x0a
    14ae:	08 95       	ret

000014b0 <UnitSpeedDec>:
                         New Speed = 0b0000-0011 (0x03) >> 1 = 0b0000-0001 (0x01)

   PARAMETERS: pUNIT_STATE pUnitState. Unit state
   RETURN: void
*** */
void UnitSpeedDec(pUNIT_STATE pUnitState) {
    14b0:	fc 01       	movw	r30, r24
   
   // Set AUTOmatic off
   pUnitState->Auto = UNIT_AUTO_OFF;
    14b2:	11 82       	std	Z+1, r1	; 0x01

   // If previous status was on change speed
   if (pUnitState->Status == US_ON) {
    14b4:	80 81       	ld	r24, Z
    14b6:	81 30       	cpi	r24, 0x01	; 1
    14b8:	29 f4       	brne	.+10     	; 0x14c4 <UnitSpeedDec+0x14>
      if (pUnitState->Speed > ESR_SPEED_1) {
    14ba:	85 81       	ldd	r24, Z+5	; 0x05
    14bc:	82 30       	cpi	r24, 0x02	; 2
    14be:	10 f0       	brcs	.+4      	; 0x14c4 <UnitSpeedDec+0x14>
         pUnitState->Speed--;
    14c0:	81 50       	subi	r24, 0x01	; 1
    14c2:	85 83       	std	Z+5, r24	; 0x05
      }
   }

   // SIGNAL: Unit controller state changed
   pUnitState->Status = US_ON;
    14c4:	81 e0       	ldi	r24, 0x01	; 1
    14c6:	80 83       	st	Z, r24
   pUnitState->flags.fSpeed = UNIT_FLAG_ON;
    14c8:	82 85       	ldd	r24, Z+10	; 0x0a

   // SIGNAL: Update User Interface
   pUnitState->flags.fUI = UNIT_FLAG_ON;
    14ca:	80 62       	ori	r24, 0x20	; 32
    14cc:	81 60       	ori	r24, 0x01	; 1
    14ce:	82 87       	std	Z+10, r24	; 0x0a
    14d0:	08 95       	ret

000014d2 <UnitAirDistMotor>:
   PARAMETERS: pUNIT_STATE pUnitState. Unit state
               uint8_t admPosition. ADM-Position = KEY_ADM-Position
                                    Example: ADM_FEET == KEY_FEET
   RETURN: void
*** */
void UnitAirDistMotor(pUNIT_STATE pUnitState, ADM_POSITION admPosition) {
    14d2:	fc 01       	movw	r30, r24
   
   // Set AUTOmatic off
   pUnitState->Auto = UNIT_AUTO_OFF;
    14d4:	11 82       	std	Z+1, r1	; 0x01
   
   if (pUnitState->AirDistMotor != admPosition) {
    14d6:	86 81       	ldd	r24, Z+6	; 0x06
    14d8:	86 17       	cp	r24, r22
    14da:	21 f0       	breq	.+8      	; 0x14e4 <UnitAirDistMotor+0x12>
      pUnitState->AirDistMotor = admPosition;
    14dc:	66 83       	std	Z+6, r22	; 0x06

      // SIGNAL: Air Distribution Motor position changed
      pUnitState->flags.fAirDistMotor = UNIT_FLAG_ON;
    14de:	82 85       	ldd	r24, Z+10	; 0x0a
    14e0:	82 60       	ori	r24, 0x02	; 2
    14e2:	82 87       	std	Z+10, r24	; 0x0a
   }

   // SIGNAL: Unit controller state changed
   pUnitState->Status = US_ON;
    14e4:	81 e0       	ldi	r24, 0x01	; 1
    14e6:	80 83       	st	Z, r24
   pUnitState->flags.fSpeed = UNIT_FLAG_ON;
    14e8:	82 85       	ldd	r24, Z+10	; 0x0a

   // SIGNAL: Update User Interface
   pUnitState->flags.fUI = UNIT_FLAG_ON;
    14ea:	80 62       	ori	r24, 0x20	; 32
    14ec:	81 60       	ori	r24, 0x01	; 1
    14ee:	82 87       	std	Z+10, r24	; 0x0a
    14f0:	08 95       	ret

000014f2 <updateExternTemp>:
      pUI->LCDDigit2 = LCDNumberToDigit(temp / 10);  // Get Tens, only integer part
      pUI->LCDDigit1 = LCDNumberToDigit(temp % 10);  // Get Ones, is the rest from the MOD operation
   }
}

static void updateExternTemp(pUNIT_UI pUI, int8_t temp) {
    14f2:	1f 93       	push	r17
    14f4:	cf 93       	push	r28
    14f6:	df 93       	push	r29
    14f8:	ec 01       	movw	r28, r24
    14fa:	86 2f       	mov	r24, r22
   // Clean extern temperature symbols
   pUI->LCDSymbols &= ~(LCD_MINUS | LCD_HUNDREDS);
    14fc:	2a 81       	ldd	r18, Y+2	; 0x02
    14fe:	2e 7d       	andi	r18, 0xDE	; 222
   pUI->LCDSymbols |= LCD_EXT;

   // Minus is special symbol
   if (temp < 0) {
    1500:	67 fd       	sbrc	r22, 7
    1502:	03 c0       	rjmp	.+6      	; 0x150a <updateExternTemp+0x18>
}

static void updateExternTemp(pUNIT_UI pUI, int8_t temp) {
   // Clean extern temperature symbols
   pUI->LCDSymbols &= ~(LCD_MINUS | LCD_HUNDREDS);
   pUI->LCDSymbols |= LCD_EXT;
    1504:	22 60       	ori	r18, 0x02	; 2
    1506:	2a 83       	std	Y+2, r18	; 0x02
    1508:	03 c0       	rjmp	.+6      	; 0x1510 <updateExternTemp+0x1e>

   // Minus is special symbol
   if (temp < 0) {
      pUI->LCDSymbols |= LCD_MINUS;
    150a:	23 60       	ori	r18, 0x03	; 3
    150c:	2a 83       	std	Y+2, r18	; 0x02
      temp *= -1;
    150e:	81 95       	neg	r24
   }

   // Hundred is special symbol, truncate temp last two digits
   if (temp >= 100) {
    1510:	84 36       	cpi	r24, 0x64	; 100
    1512:	3c f0       	brlt	.+14     	; 0x1522 <updateExternTemp+0x30>
      pUI->LCDSymbols |= LCD_HUNDREDS;
    1514:	9a 81       	ldd	r25, Y+2	; 0x02
    1516:	90 62       	ori	r25, 0x20	; 32
    1518:	9a 83       	std	Y+2, r25	; 0x02
      temp %= 100;
    151a:	64 e6       	ldi	r22, 0x64	; 100
    151c:	0e 94 74 0b 	call	0x16e8	; 0x16e8 <__divmodqi4>
    1520:	89 2f       	mov	r24, r25
   }

   // Convert outside mirror temp to LCD digits
   pUI->LCDDigit2 = LCDNumberToDigit(temp / 10);  // Get Tens, only integer part
    1522:	6a e0       	ldi	r22, 0x0A	; 10
    1524:	0e 94 74 0b 	call	0x16e8	; 0x16e8 <__divmodqi4>
    1528:	19 2f       	mov	r17, r25
    152a:	0e 94 6e 03 	call	0x6dc	; 0x6dc <LCDNumberToDigit>
    152e:	89 83       	std	Y+1, r24	; 0x01
   pUI->LCDDigit1 = LCDNumberToDigit(temp % 10);  // Get Ones, is the rest from the MOD operation
    1530:	81 2f       	mov	r24, r17
    1532:	0e 94 6e 03 	call	0x6dc	; 0x6dc <LCDNumberToDigit>
    1536:	88 83       	st	Y, r24
}
    1538:	df 91       	pop	r29
    153a:	cf 91       	pop	r28
    153c:	1f 91       	pop	r17
    153e:	08 95       	ret

00001540 <UnitUIUpdate>:

   PARAMETERS: void
   RETURN: void
*** */
void UnitUIUpdate(pUNIT_STATE pUnitState, pTEMP_SENSORS_INFO pTempSensors)
{
    1540:	cf 92       	push	r12
    1542:	df 92       	push	r13
    1544:	ef 92       	push	r14
    1546:	ff 92       	push	r15
    1548:	0f 93       	push	r16
    154a:	1f 93       	push	r17
    154c:	cf 93       	push	r28
    154e:	df 93       	push	r29
    1550:	cd b7       	in	r28, 0x3d	; 61
    1552:	de b7       	in	r29, 0x3e	; 62
    1554:	28 97       	sbiw	r28, 0x08	; 8
    1556:	0f b6       	in	r0, 0x3f	; 63
    1558:	f8 94       	cli
    155a:	de bf       	out	0x3e, r29	; 62
    155c:	0f be       	out	0x3f, r0	; 63
    155e:	cd bf       	out	0x3d, r28	; 61
    1560:	8c 01       	movw	r16, r24
    1562:	6b 01       	movw	r12, r22
   // Fresh canvas
   UNIT_UI ui;
   memset(&ui, 0, sizeof(UNIT_UI));
    1564:	ce 01       	movw	r24, r28
    1566:	01 96       	adiw	r24, 0x01	; 1
    1568:	7c 01       	movw	r14, r24
    156a:	88 e0       	ldi	r24, 0x08	; 8
    156c:	f7 01       	movw	r30, r14
    156e:	11 92       	st	Z+, r1
    1570:	8a 95       	dec	r24
    1572:	e9 f7       	brne	.-6      	; 0x156e <UnitUIUpdate+0x2e>

   LEDClear();
    1574:	0e 94 9f 03 	call	0x73e	; 0x73e <LEDClear>
   LCDClear();
    1578:	0e 94 69 03 	call	0x6d2	; 0x6d2 <LCDClear>

   // <-Unit status <ON> info->
   if (pUnitState->Status == US_ON) {
    157c:	f8 01       	movw	r30, r16
    157e:	90 81       	ld	r25, Z
    1580:	8d 81       	ldd	r24, Y+5	; 0x05
    1582:	91 30       	cpi	r25, 0x01	; 1
    1584:	09 f0       	breq	.+2      	; 0x1588 <UnitUIUpdate+0x48>
    1586:	76 c0       	rjmp	.+236    	; 0x1674 <UnitUIUpdate+0x134>
      // Display fixed LED and LCD symbols
      ui.LEDOn = LED_ON;
    1588:	90 e1       	ldi	r25, 0x10	; 16
    158a:	9f 83       	std	Y+7, r25	; 0x07
      ui.LCDSymbols = LCD_SPEED_SEP;

      // Turn off <OFF> LED
      ui.LEDStatus &= ~LED_OFF;
    158c:	98 2f       	mov	r25, r24
    158e:	9f 77       	andi	r25, 0x7F	; 127

      // ->AUTOmatics On?
      ui.LCDSymbols &= ~(LCD_MANUAL | LCD_AUTO);
      if (pUnitState->Auto == UNIT_AUTO_ON) {
    1590:	21 81       	ldd	r18, Z+1	; 0x01
    1592:	21 30       	cpi	r18, 0x01	; 1
    1594:	29 f4       	brne	.+10     	; 0x15a0 <UnitUIUpdate+0x60>
         ui.LEDStatus  |= LED_AUTO;       // Set on 'AUTO' LED (LED 1)
    1596:	89 2f       	mov	r24, r25
    1598:	80 61       	ori	r24, 0x10	; 16
    159a:	8d 83       	std	Y+5, r24	; 0x05
         ui.LCDSymbols |= LCD_AUTO;   
    159c:	88 e1       	ldi	r24, 0x18	; 24
    159e:	03 c0       	rjmp	.+6      	; 0x15a6 <UnitUIUpdate+0x66>
      }
      else {
         ui.LEDStatus  &= ~LED_AUTO;
    15a0:	8f 76       	andi	r24, 0x6F	; 111
    15a2:	8d 83       	std	Y+5, r24	; 0x05
         ui.LCDSymbols |= LCD_MANUAL;
    15a4:	84 e1       	ldi	r24, 0x14	; 20
    15a6:	8b 83       	std	Y+3, r24	; 0x03
      }   

      // ->ECOnomics On?
      ui.LEDStatus &= ~LED_ECONOMICS;   
    15a8:	8d 81       	ldd	r24, Y+5	; 0x05
    15aa:	8f 7d       	andi	r24, 0xDF	; 223
    15ac:	8d 83       	std	Y+5, r24	; 0x05
      if (pUnitState->Economic == UNIT_ECON_ON) {
    15ae:	f8 01       	movw	r30, r16
    15b0:	92 81       	ldd	r25, Z+2	; 0x02
    15b2:	91 30       	cpi	r25, 0x01	; 1
    15b4:	11 f4       	brne	.+4      	; 0x15ba <UnitUIUpdate+0x7a>
         ui.LEDStatus |= LED_ECONOMICS;  // Set on 'ECO' LED (LED 2)
    15b6:	80 62       	ori	r24, 0x20	; 32
    15b8:	8d 83       	std	Y+5, r24	; 0x05
      }

      // ->RECirculate On?
      ui.LEDStatus &= ~LED_RECIRCULATE;
    15ba:	8d 81       	ldd	r24, Y+5	; 0x05
    15bc:	8f 7b       	andi	r24, 0xBF	; 191
    15be:	8d 83       	std	Y+5, r24	; 0x05
      if (pUnitState->Recirculate == UNIT_RECI_ON) {
    15c0:	f8 01       	movw	r30, r16
    15c2:	93 81       	ldd	r25, Z+3	; 0x03
    15c4:	91 30       	cpi	r25, 0x01	; 1
    15c6:	11 f4       	brne	.+4      	; 0x15cc <UnitUIUpdate+0x8c>
         ui.LEDStatus |= LED_RECIRCULATE; // Set on 'RECI' LED (LED 3)
    15c8:	80 64       	ori	r24, 0x40	; 64
    15ca:	8d 83       	std	Y+5, r24	; 0x05
      }

      // ->Air Distribution Motor Position info
      if (pUnitState->AirDistMotor == ADM_WINDSHIELD) {
    15cc:	f8 01       	movw	r30, r16
    15ce:	86 81       	ldd	r24, Z+6	; 0x06
    15d0:	83 30       	cpi	r24, 0x03	; 3
    15d2:	11 f4       	brne	.+4      	; 0x15d8 <UnitUIUpdate+0x98>
         ui.LEDAirDistMotor = LED_WINDSHIELD;     // Set on LED WINDSHIELD (LED 5)
    15d4:	80 e1       	ldi	r24, 0x10	; 16
    15d6:	0b c0       	rjmp	.+22     	; 0x15ee <UnitUIUpdate+0xae>
      }

      if (pUnitState->AirDistMotor == ADM_FRONT) {
    15d8:	81 11       	cpse	r24, r1
    15da:	02 c0       	rjmp	.+4      	; 0x15e0 <UnitUIUpdate+0xa0>
         ui.LEDAirDistMotor = LED_FRONT;          // Set on LED FRONT (LED 6)
    15dc:	80 e2       	ldi	r24, 0x20	; 32
    15de:	07 c0       	rjmp	.+14     	; 0x15ee <UnitUIUpdate+0xae>
      }

      if (pUnitState->AirDistMotor== ADM_FRONT_FEET) {
    15e0:	81 30       	cpi	r24, 0x01	; 1
    15e2:	11 f4       	brne	.+4      	; 0x15e8 <UnitUIUpdate+0xa8>
         ui.LEDAirDistMotor = LED_FRONT_FEET;     // Set on LED FRONT/FEET (LED 7)
    15e4:	80 e4       	ldi	r24, 0x40	; 64
    15e6:	03 c0       	rjmp	.+6      	; 0x15ee <UnitUIUpdate+0xae>
      }

      if (pUnitState->AirDistMotor == ADM_FEET) {
    15e8:	82 30       	cpi	r24, 0x02	; 2
    15ea:	11 f4       	brne	.+4      	; 0x15f0 <UnitUIUpdate+0xb0>
         ui.LEDAirDistMotor = LED_FEET;           // Set on LED FEET (LED 8)
    15ec:	80 e8       	ldi	r24, 0x80	; 128
    15ee:	8e 83       	std	Y+6, r24	; 0x06
      }
      
      // See lcd.h for speed display definition. LCD speed display = (2^Speed) - 1  
      ui.LCDSpeed =  ((1 << pUnitState->Speed) - 1);
    15f0:	81 e0       	ldi	r24, 0x01	; 1
    15f2:	90 e0       	ldi	r25, 0x00	; 0
    15f4:	f8 01       	movw	r30, r16
    15f6:	05 80       	ldd	r0, Z+5	; 0x05
    15f8:	02 c0       	rjmp	.+4      	; 0x15fe <UnitUIUpdate+0xbe>
    15fa:	88 0f       	add	r24, r24
    15fc:	99 1f       	adc	r25, r25
    15fe:	0a 94       	dec	r0
    1600:	e2 f7       	brpl	.-8      	; 0x15fa <UnitUIUpdate+0xba>
    1602:	81 50       	subi	r24, 0x01	; 1
    1604:	8c 83       	std	Y+4, r24	; 0x04

      // Show Extern Temperature?
      if (pUnitState->flags.fExtTemp) {
    1606:	82 85       	ldd	r24, Z+10	; 0x0a
    1608:	86 ff       	sbrs	r24, 6
    160a:	0a c0       	rjmp	.+20     	; 0x1620 <UnitUIUpdate+0xe0>
         updateExternTemp(&ui, pTempSensors->OutsideMirror);
    160c:	f6 01       	movw	r30, r12
    160e:	62 81       	ldd	r22, Z+2	; 0x02
    1610:	c7 01       	movw	r24, r14
    1612:	0e 94 79 0a 	call	0x14f2	; 0x14f2 <updateExternTemp>
         pUnitState->flags.fExtTemp = UNIT_FLAG_OFF;
    1616:	f8 01       	movw	r30, r16
    1618:	82 85       	ldd	r24, Z+10	; 0x0a
    161a:	8f 7b       	andi	r24, 0xBF	; 191
    161c:	82 87       	std	Z+10, r24	; 0x0a
    161e:	1c c0       	rjmp	.+56     	; 0x1658 <UnitUIUpdate+0x118>
      }
      else {
         updateRoomTemp(&ui, pUnitState->SelectedTemp);
    1620:	f8 01       	movw	r30, r16
    1622:	84 81       	ldd	r24, Z+4	; 0x04
               pUI->LEDDummy);        // byte4=LED14:13. Dummy byte
}

static void updateRoomTemp(pUNIT_UI pUI, uint8_t temp) {
   // Clean extern temperature symbols
   pUI->LCDSymbols &= ~(LCD_EXT | LCD_MINUS | LCD_HUNDREDS);
    1624:	9b 81       	ldd	r25, Y+3	; 0x03
    1626:	9c 7d       	andi	r25, 0xDC	; 220
    1628:	9b 83       	std	Y+3, r25	; 0x03

   // Show 'LO' or 'HI' message. (Right->Left)
   if (temp == UNIT_TEMP_LOW) {
    162a:	81 31       	cpi	r24, 0x11	; 17
    162c:	21 f4       	brne	.+8      	; 0x1636 <UnitUIUpdate+0xf6>
      pUI->LCDDigit2 = LCD_L; pUI->LCDDigit1 = LCD_O;
    162e:	80 e7       	ldi	r24, 0x70	; 112
    1630:	8a 83       	std	Y+2, r24	; 0x02
    1632:	8b e7       	ldi	r24, 0x7B	; 123
    1634:	10 c0       	rjmp	.+32     	; 0x1656 <UnitUIUpdate+0x116>
   }
   else if (temp == UNIT_TEMP_HIGH) {
    1636:	81 32       	cpi	r24, 0x21	; 33
    1638:	21 f4       	brne	.+8      	; 0x1642 <UnitUIUpdate+0x102>
      pUI->LCDDigit2 = LCD_H; pUI->LCDDigit1 = LCD_I;
    163a:	8e e6       	ldi	r24, 0x6E	; 110
    163c:	8a 83       	std	Y+2, r24	; 0x02
    163e:	80 e6       	ldi	r24, 0x60	; 96
    1640:	0a c0       	rjmp	.+20     	; 0x1656 <UnitUIUpdate+0x116>
   else {
      // Get DIGIT2:1 from selected temperature
      // Example formula: 43928 / 10000 = 4; 43928 % 10000 = 3928; 3928 /1000 = 3; 3928 %1000 = 928, etc...

      // Convert room temp to LCD digits
      pUI->LCDDigit2 = LCDNumberToDigit(temp / 10);  // Get Tens, only integer part
    1642:	6a e0       	ldi	r22, 0x0A	; 10
    1644:	0e 94 68 0b 	call	0x16d0	; 0x16d0 <__udivmodqi4>
    1648:	19 2f       	mov	r17, r25
    164a:	0e 94 6e 03 	call	0x6dc	; 0x6dc <LCDNumberToDigit>
    164e:	8a 83       	std	Y+2, r24	; 0x02
      pUI->LCDDigit1 = LCDNumberToDigit(temp % 10);  // Get Ones, is the rest from the MOD operation
    1650:	81 2f       	mov	r24, r17
    1652:	0e 94 6e 03 	call	0x6dc	; 0x6dc <LCDNumberToDigit>
    1656:	89 83       	std	Y+1, r24	; 0x01

   PARAMETERS: void
   RETURN: void
*** */
static void updateLED(pUNIT_UI pUI) {
   LEDSendData(pUI->LEDStatus,        // byte1=LED4:1
    1658:	28 85       	ldd	r18, Y+8	; 0x08
    165a:	4f 81       	ldd	r20, Y+7	; 0x07
    165c:	6e 81       	ldd	r22, Y+6	; 0x06
    165e:	8d 81       	ldd	r24, Y+5	; 0x05
    1660:	0e 94 74 03 	call	0x6e8	; 0x6e8 <LEDSendData>

   PARAMETERS: void
   RETURN: void
*** */
static void updateLCD(pUNIT_UI pUI) {
   LCDSendData(pUI->LCDDigit1,        // byte1=S8:1
    1664:	2c 81       	ldd	r18, Y+4	; 0x04
    1666:	4b 81       	ldd	r20, Y+3	; 0x03
    1668:	6a 81       	ldd	r22, Y+2	; 0x02
    166a:	89 81       	ldd	r24, Y+1	; 0x01
    166c:	0e 94 49 03 	call	0x692	; 0x692 <LCDSendData>
      // Update physic UI
      updateLED(&ui);
      updateLCD(&ui);

      // Set on LCD Temp and Speed display lamps
      LampsSetState(LAMP_TEMPERATURE_ON | LAMP_SPEED_ON);
    1670:	85 e0       	ldi	r24, 0x05	; 5
    1672:	1d c0       	rjmp	.+58     	; 0x16ae <UnitUIUpdate+0x16e>
   }
   else {   // Status <OFF>
      ui.LEDStatus |= LED_OFF;
    1674:	80 68       	ori	r24, 0x80	; 128
    1676:	8d 83       	std	Y+5, r24	; 0x05

   PARAMETERS: void
   RETURN: void
*** */
static void updateLED(pUNIT_UI pUI) {
   LEDSendData(pUI->LEDStatus,        // byte1=LED4:1
    1678:	28 85       	ldd	r18, Y+8	; 0x08
    167a:	4f 81       	ldd	r20, Y+7	; 0x07
    167c:	6e 81       	ldd	r22, Y+6	; 0x06
    167e:	0e 94 74 03 	call	0x6e8	; 0x6e8 <LEDSendData>
   else {   // Status <OFF>
      ui.LEDStatus |= LED_OFF;
      updateLED(&ui);

      // When unit is off and Extern Temp. is selected, show temperature info for 10s
      if (pUnitState->flags.fExtTemp) {
    1682:	f8 01       	movw	r30, r16
    1684:	82 85       	ldd	r24, Z+10	; 0x0a
    1686:	86 ff       	sbrs	r24, 6
    1688:	11 c0       	rjmp	.+34     	; 0x16ac <UnitUIUpdate+0x16c>
         pUnitState->flags.fExtTemp = UNIT_FLAG_OFF;
    168a:	8f 7b       	andi	r24, 0xBF	; 191
    168c:	82 87       	std	Z+10, r24	; 0x0a

         updateExternTemp(&ui, pTempSensors->OutsideMirror);
    168e:	f6 01       	movw	r30, r12
    1690:	62 81       	ldd	r22, Z+2	; 0x02
    1692:	c7 01       	movw	r24, r14
    1694:	0e 94 79 0a 	call	0x14f2	; 0x14f2 <updateExternTemp>
         LampsSetState(LAMP_TEMPERATURE_ON);
    1698:	81 e0       	ldi	r24, 0x01	; 1
    169a:	0e 94 e4 02 	call	0x5c8	; 0x5c8 <LampsSetState>

   PARAMETERS: void
   RETURN: void
*** */
static void updateLCD(pUNIT_UI pUI) {
   LCDSendData(pUI->LCDDigit1,        // byte1=S8:1
    169e:	2c 81       	ldd	r18, Y+4	; 0x04
    16a0:	4b 81       	ldd	r20, Y+3	; 0x03
    16a2:	6a 81       	ldd	r22, Y+2	; 0x02
    16a4:	89 81       	ldd	r24, Y+1	; 0x01
    16a6:	0e 94 49 03 	call	0x692	; 0x692 <LCDSendData>
    16aa:	03 c0       	rjmp	.+6      	; 0x16b2 <UnitUIUpdate+0x172>
         updateExternTemp(&ui, pTempSensors->OutsideMirror);
         LampsSetState(LAMP_TEMPERATURE_ON);
         updateLCD(&ui);
      }
      else {
         LampsSetState(LAMP_TEMPERATURE_OFF | LAMP_SPEED_OFF);
    16ac:	8a e0       	ldi	r24, 0x0A	; 10
    16ae:	0e 94 e4 02 	call	0x5c8	; 0x5c8 <LampsSetState>
      }
   }
}
    16b2:	28 96       	adiw	r28, 0x08	; 8
    16b4:	0f b6       	in	r0, 0x3f	; 63
    16b6:	f8 94       	cli
    16b8:	de bf       	out	0x3e, r29	; 62
    16ba:	0f be       	out	0x3f, r0	; 63
    16bc:	cd bf       	out	0x3d, r28	; 61
    16be:	df 91       	pop	r29
    16c0:	cf 91       	pop	r28
    16c2:	1f 91       	pop	r17
    16c4:	0f 91       	pop	r16
    16c6:	ff 90       	pop	r15
    16c8:	ef 90       	pop	r14
    16ca:	df 90       	pop	r13
    16cc:	cf 90       	pop	r12
    16ce:	08 95       	ret

000016d0 <__udivmodqi4>:
    16d0:	99 1b       	sub	r25, r25
    16d2:	79 e0       	ldi	r23, 0x09	; 9
    16d4:	04 c0       	rjmp	.+8      	; 0x16de <__udivmodqi4_ep>

000016d6 <__udivmodqi4_loop>:
    16d6:	99 1f       	adc	r25, r25
    16d8:	96 17       	cp	r25, r22
    16da:	08 f0       	brcs	.+2      	; 0x16de <__udivmodqi4_ep>
    16dc:	96 1b       	sub	r25, r22

000016de <__udivmodqi4_ep>:
    16de:	88 1f       	adc	r24, r24
    16e0:	7a 95       	dec	r23
    16e2:	c9 f7       	brne	.-14     	; 0x16d6 <__udivmodqi4_loop>
    16e4:	80 95       	com	r24
    16e6:	08 95       	ret

000016e8 <__divmodqi4>:
    16e8:	87 fb       	bst	r24, 7
    16ea:	08 2e       	mov	r0, r24
    16ec:	06 26       	eor	r0, r22
    16ee:	87 fd       	sbrc	r24, 7
    16f0:	81 95       	neg	r24
    16f2:	67 fd       	sbrc	r22, 7
    16f4:	61 95       	neg	r22
    16f6:	0e 94 68 0b 	call	0x16d0	; 0x16d0 <__udivmodqi4>
    16fa:	0e f4       	brtc	.+2      	; 0x16fe <__divmodqi4_1>
    16fc:	91 95       	neg	r25

000016fe <__divmodqi4_1>:
    16fe:	07 fc       	sbrc	r0, 7
    1700:	81 95       	neg	r24

00001702 <__divmodqi4_exit>:
    1702:	08 95       	ret

00001704 <__udivmodhi4>:
    1704:	aa 1b       	sub	r26, r26
    1706:	bb 1b       	sub	r27, r27
    1708:	51 e1       	ldi	r21, 0x11	; 17
    170a:	07 c0       	rjmp	.+14     	; 0x171a <__udivmodhi4_ep>

0000170c <__udivmodhi4_loop>:
    170c:	aa 1f       	adc	r26, r26
    170e:	bb 1f       	adc	r27, r27
    1710:	a6 17       	cp	r26, r22
    1712:	b7 07       	cpc	r27, r23
    1714:	10 f0       	brcs	.+4      	; 0x171a <__udivmodhi4_ep>
    1716:	a6 1b       	sub	r26, r22
    1718:	b7 0b       	sbc	r27, r23

0000171a <__udivmodhi4_ep>:
    171a:	88 1f       	adc	r24, r24
    171c:	99 1f       	adc	r25, r25
    171e:	5a 95       	dec	r21
    1720:	a9 f7       	brne	.-22     	; 0x170c <__udivmodhi4_loop>
    1722:	80 95       	com	r24
    1724:	90 95       	com	r25
    1726:	bc 01       	movw	r22, r24
    1728:	cd 01       	movw	r24, r26
    172a:	08 95       	ret

0000172c <__tablejump2__>:
    172c:	ee 0f       	add	r30, r30
    172e:	ff 1f       	adc	r31, r31
    1730:	05 90       	lpm	r0, Z+
    1732:	f4 91       	lpm	r31, Z
    1734:	e0 2d       	mov	r30, r0
    1736:	09 94       	ijmp

00001738 <__subsf3>:
    1738:	50 58       	subi	r21, 0x80	; 128

0000173a <__addsf3>:
    173a:	bb 27       	eor	r27, r27
    173c:	aa 27       	eor	r26, r26
    173e:	0e 94 b4 0b 	call	0x1768	; 0x1768 <__addsf3x>
    1742:	0c 94 05 0d 	jmp	0x1a0a	; 0x1a0a <__fp_round>
    1746:	0e 94 f7 0c 	call	0x19ee	; 0x19ee <__fp_pscA>
    174a:	38 f0       	brcs	.+14     	; 0x175a <__addsf3+0x20>
    174c:	0e 94 fe 0c 	call	0x19fc	; 0x19fc <__fp_pscB>
    1750:	20 f0       	brcs	.+8      	; 0x175a <__addsf3+0x20>
    1752:	39 f4       	brne	.+14     	; 0x1762 <__addsf3+0x28>
    1754:	9f 3f       	cpi	r25, 0xFF	; 255
    1756:	19 f4       	brne	.+6      	; 0x175e <__addsf3+0x24>
    1758:	26 f4       	brtc	.+8      	; 0x1762 <__addsf3+0x28>
    175a:	0c 94 f4 0c 	jmp	0x19e8	; 0x19e8 <__fp_nan>
    175e:	0e f4       	brtc	.+2      	; 0x1762 <__addsf3+0x28>
    1760:	e0 95       	com	r30
    1762:	e7 fb       	bst	r30, 7
    1764:	0c 94 ee 0c 	jmp	0x19dc	; 0x19dc <__fp_inf>

00001768 <__addsf3x>:
    1768:	e9 2f       	mov	r30, r25
    176a:	0e 94 16 0d 	call	0x1a2c	; 0x1a2c <__fp_split3>
    176e:	58 f3       	brcs	.-42     	; 0x1746 <__addsf3+0xc>
    1770:	ba 17       	cp	r27, r26
    1772:	62 07       	cpc	r22, r18
    1774:	73 07       	cpc	r23, r19
    1776:	84 07       	cpc	r24, r20
    1778:	95 07       	cpc	r25, r21
    177a:	20 f0       	brcs	.+8      	; 0x1784 <__addsf3x+0x1c>
    177c:	79 f4       	brne	.+30     	; 0x179c <__addsf3x+0x34>
    177e:	a6 f5       	brtc	.+104    	; 0x17e8 <__addsf3x+0x80>
    1780:	0c 94 38 0d 	jmp	0x1a70	; 0x1a70 <__fp_zero>
    1784:	0e f4       	brtc	.+2      	; 0x1788 <__addsf3x+0x20>
    1786:	e0 95       	com	r30
    1788:	0b 2e       	mov	r0, r27
    178a:	ba 2f       	mov	r27, r26
    178c:	a0 2d       	mov	r26, r0
    178e:	0b 01       	movw	r0, r22
    1790:	b9 01       	movw	r22, r18
    1792:	90 01       	movw	r18, r0
    1794:	0c 01       	movw	r0, r24
    1796:	ca 01       	movw	r24, r20
    1798:	a0 01       	movw	r20, r0
    179a:	11 24       	eor	r1, r1
    179c:	ff 27       	eor	r31, r31
    179e:	59 1b       	sub	r21, r25
    17a0:	99 f0       	breq	.+38     	; 0x17c8 <__addsf3x+0x60>
    17a2:	59 3f       	cpi	r21, 0xF9	; 249
    17a4:	50 f4       	brcc	.+20     	; 0x17ba <__addsf3x+0x52>
    17a6:	50 3e       	cpi	r21, 0xE0	; 224
    17a8:	68 f1       	brcs	.+90     	; 0x1804 <__addsf3x+0x9c>
    17aa:	1a 16       	cp	r1, r26
    17ac:	f0 40       	sbci	r31, 0x00	; 0
    17ae:	a2 2f       	mov	r26, r18
    17b0:	23 2f       	mov	r18, r19
    17b2:	34 2f       	mov	r19, r20
    17b4:	44 27       	eor	r20, r20
    17b6:	58 5f       	subi	r21, 0xF8	; 248
    17b8:	f3 cf       	rjmp	.-26     	; 0x17a0 <__addsf3x+0x38>
    17ba:	46 95       	lsr	r20
    17bc:	37 95       	ror	r19
    17be:	27 95       	ror	r18
    17c0:	a7 95       	ror	r26
    17c2:	f0 40       	sbci	r31, 0x00	; 0
    17c4:	53 95       	inc	r21
    17c6:	c9 f7       	brne	.-14     	; 0x17ba <__addsf3x+0x52>
    17c8:	7e f4       	brtc	.+30     	; 0x17e8 <__addsf3x+0x80>
    17ca:	1f 16       	cp	r1, r31
    17cc:	ba 0b       	sbc	r27, r26
    17ce:	62 0b       	sbc	r22, r18
    17d0:	73 0b       	sbc	r23, r19
    17d2:	84 0b       	sbc	r24, r20
    17d4:	ba f0       	brmi	.+46     	; 0x1804 <__addsf3x+0x9c>
    17d6:	91 50       	subi	r25, 0x01	; 1
    17d8:	a1 f0       	breq	.+40     	; 0x1802 <__addsf3x+0x9a>
    17da:	ff 0f       	add	r31, r31
    17dc:	bb 1f       	adc	r27, r27
    17de:	66 1f       	adc	r22, r22
    17e0:	77 1f       	adc	r23, r23
    17e2:	88 1f       	adc	r24, r24
    17e4:	c2 f7       	brpl	.-16     	; 0x17d6 <__addsf3x+0x6e>
    17e6:	0e c0       	rjmp	.+28     	; 0x1804 <__addsf3x+0x9c>
    17e8:	ba 0f       	add	r27, r26
    17ea:	62 1f       	adc	r22, r18
    17ec:	73 1f       	adc	r23, r19
    17ee:	84 1f       	adc	r24, r20
    17f0:	48 f4       	brcc	.+18     	; 0x1804 <__addsf3x+0x9c>
    17f2:	87 95       	ror	r24
    17f4:	77 95       	ror	r23
    17f6:	67 95       	ror	r22
    17f8:	b7 95       	ror	r27
    17fa:	f7 95       	ror	r31
    17fc:	9e 3f       	cpi	r25, 0xFE	; 254
    17fe:	08 f0       	brcs	.+2      	; 0x1802 <__addsf3x+0x9a>
    1800:	b0 cf       	rjmp	.-160    	; 0x1762 <__addsf3+0x28>
    1802:	93 95       	inc	r25
    1804:	88 0f       	add	r24, r24
    1806:	08 f0       	brcs	.+2      	; 0x180a <__addsf3x+0xa2>
    1808:	99 27       	eor	r25, r25
    180a:	ee 0f       	add	r30, r30
    180c:	97 95       	ror	r25
    180e:	87 95       	ror	r24
    1810:	08 95       	ret

00001812 <__divsf3>:
    1812:	0e 94 1d 0c 	call	0x183a	; 0x183a <__divsf3x>
    1816:	0c 94 05 0d 	jmp	0x1a0a	; 0x1a0a <__fp_round>
    181a:	0e 94 fe 0c 	call	0x19fc	; 0x19fc <__fp_pscB>
    181e:	58 f0       	brcs	.+22     	; 0x1836 <__divsf3+0x24>
    1820:	0e 94 f7 0c 	call	0x19ee	; 0x19ee <__fp_pscA>
    1824:	40 f0       	brcs	.+16     	; 0x1836 <__divsf3+0x24>
    1826:	29 f4       	brne	.+10     	; 0x1832 <__divsf3+0x20>
    1828:	5f 3f       	cpi	r21, 0xFF	; 255
    182a:	29 f0       	breq	.+10     	; 0x1836 <__divsf3+0x24>
    182c:	0c 94 ee 0c 	jmp	0x19dc	; 0x19dc <__fp_inf>
    1830:	51 11       	cpse	r21, r1
    1832:	0c 94 39 0d 	jmp	0x1a72	; 0x1a72 <__fp_szero>
    1836:	0c 94 f4 0c 	jmp	0x19e8	; 0x19e8 <__fp_nan>

0000183a <__divsf3x>:
    183a:	0e 94 16 0d 	call	0x1a2c	; 0x1a2c <__fp_split3>
    183e:	68 f3       	brcs	.-38     	; 0x181a <__divsf3+0x8>

00001840 <__divsf3_pse>:
    1840:	99 23       	and	r25, r25
    1842:	b1 f3       	breq	.-20     	; 0x1830 <__divsf3+0x1e>
    1844:	55 23       	and	r21, r21
    1846:	91 f3       	breq	.-28     	; 0x182c <__divsf3+0x1a>
    1848:	95 1b       	sub	r25, r21
    184a:	55 0b       	sbc	r21, r21
    184c:	bb 27       	eor	r27, r27
    184e:	aa 27       	eor	r26, r26
    1850:	62 17       	cp	r22, r18
    1852:	73 07       	cpc	r23, r19
    1854:	84 07       	cpc	r24, r20
    1856:	38 f0       	brcs	.+14     	; 0x1866 <__divsf3_pse+0x26>
    1858:	9f 5f       	subi	r25, 0xFF	; 255
    185a:	5f 4f       	sbci	r21, 0xFF	; 255
    185c:	22 0f       	add	r18, r18
    185e:	33 1f       	adc	r19, r19
    1860:	44 1f       	adc	r20, r20
    1862:	aa 1f       	adc	r26, r26
    1864:	a9 f3       	breq	.-22     	; 0x1850 <__divsf3_pse+0x10>
    1866:	35 d0       	rcall	.+106    	; 0x18d2 <__divsf3_pse+0x92>
    1868:	0e 2e       	mov	r0, r30
    186a:	3a f0       	brmi	.+14     	; 0x187a <__divsf3_pse+0x3a>
    186c:	e0 e8       	ldi	r30, 0x80	; 128
    186e:	32 d0       	rcall	.+100    	; 0x18d4 <__divsf3_pse+0x94>
    1870:	91 50       	subi	r25, 0x01	; 1
    1872:	50 40       	sbci	r21, 0x00	; 0
    1874:	e6 95       	lsr	r30
    1876:	00 1c       	adc	r0, r0
    1878:	ca f7       	brpl	.-14     	; 0x186c <__divsf3_pse+0x2c>
    187a:	2b d0       	rcall	.+86     	; 0x18d2 <__divsf3_pse+0x92>
    187c:	fe 2f       	mov	r31, r30
    187e:	29 d0       	rcall	.+82     	; 0x18d2 <__divsf3_pse+0x92>
    1880:	66 0f       	add	r22, r22
    1882:	77 1f       	adc	r23, r23
    1884:	88 1f       	adc	r24, r24
    1886:	bb 1f       	adc	r27, r27
    1888:	26 17       	cp	r18, r22
    188a:	37 07       	cpc	r19, r23
    188c:	48 07       	cpc	r20, r24
    188e:	ab 07       	cpc	r26, r27
    1890:	b0 e8       	ldi	r27, 0x80	; 128
    1892:	09 f0       	breq	.+2      	; 0x1896 <__divsf3_pse+0x56>
    1894:	bb 0b       	sbc	r27, r27
    1896:	80 2d       	mov	r24, r0
    1898:	bf 01       	movw	r22, r30
    189a:	ff 27       	eor	r31, r31
    189c:	93 58       	subi	r25, 0x83	; 131
    189e:	5f 4f       	sbci	r21, 0xFF	; 255
    18a0:	3a f0       	brmi	.+14     	; 0x18b0 <__divsf3_pse+0x70>
    18a2:	9e 3f       	cpi	r25, 0xFE	; 254
    18a4:	51 05       	cpc	r21, r1
    18a6:	78 f0       	brcs	.+30     	; 0x18c6 <__divsf3_pse+0x86>
    18a8:	0c 94 ee 0c 	jmp	0x19dc	; 0x19dc <__fp_inf>
    18ac:	0c 94 39 0d 	jmp	0x1a72	; 0x1a72 <__fp_szero>
    18b0:	5f 3f       	cpi	r21, 0xFF	; 255
    18b2:	e4 f3       	brlt	.-8      	; 0x18ac <__divsf3_pse+0x6c>
    18b4:	98 3e       	cpi	r25, 0xE8	; 232
    18b6:	d4 f3       	brlt	.-12     	; 0x18ac <__divsf3_pse+0x6c>
    18b8:	86 95       	lsr	r24
    18ba:	77 95       	ror	r23
    18bc:	67 95       	ror	r22
    18be:	b7 95       	ror	r27
    18c0:	f7 95       	ror	r31
    18c2:	9f 5f       	subi	r25, 0xFF	; 255
    18c4:	c9 f7       	brne	.-14     	; 0x18b8 <__divsf3_pse+0x78>
    18c6:	88 0f       	add	r24, r24
    18c8:	91 1d       	adc	r25, r1
    18ca:	96 95       	lsr	r25
    18cc:	87 95       	ror	r24
    18ce:	97 f9       	bld	r25, 7
    18d0:	08 95       	ret
    18d2:	e1 e0       	ldi	r30, 0x01	; 1
    18d4:	66 0f       	add	r22, r22
    18d6:	77 1f       	adc	r23, r23
    18d8:	88 1f       	adc	r24, r24
    18da:	bb 1f       	adc	r27, r27
    18dc:	62 17       	cp	r22, r18
    18de:	73 07       	cpc	r23, r19
    18e0:	84 07       	cpc	r24, r20
    18e2:	ba 07       	cpc	r27, r26
    18e4:	20 f0       	brcs	.+8      	; 0x18ee <__divsf3_pse+0xae>
    18e6:	62 1b       	sub	r22, r18
    18e8:	73 0b       	sbc	r23, r19
    18ea:	84 0b       	sbc	r24, r20
    18ec:	ba 0b       	sbc	r27, r26
    18ee:	ee 1f       	adc	r30, r30
    18f0:	88 f7       	brcc	.-30     	; 0x18d4 <__divsf3_pse+0x94>
    18f2:	e0 95       	com	r30
    18f4:	08 95       	ret

000018f6 <__fixsfsi>:
    18f6:	0e 94 82 0c 	call	0x1904	; 0x1904 <__fixunssfsi>
    18fa:	68 94       	set
    18fc:	b1 11       	cpse	r27, r1
    18fe:	0c 94 39 0d 	jmp	0x1a72	; 0x1a72 <__fp_szero>
    1902:	08 95       	ret

00001904 <__fixunssfsi>:
    1904:	0e 94 1e 0d 	call	0x1a3c	; 0x1a3c <__fp_splitA>
    1908:	88 f0       	brcs	.+34     	; 0x192c <__fixunssfsi+0x28>
    190a:	9f 57       	subi	r25, 0x7F	; 127
    190c:	98 f0       	brcs	.+38     	; 0x1934 <__fixunssfsi+0x30>
    190e:	b9 2f       	mov	r27, r25
    1910:	99 27       	eor	r25, r25
    1912:	b7 51       	subi	r27, 0x17	; 23
    1914:	b0 f0       	brcs	.+44     	; 0x1942 <__fixunssfsi+0x3e>
    1916:	e1 f0       	breq	.+56     	; 0x1950 <__fixunssfsi+0x4c>
    1918:	66 0f       	add	r22, r22
    191a:	77 1f       	adc	r23, r23
    191c:	88 1f       	adc	r24, r24
    191e:	99 1f       	adc	r25, r25
    1920:	1a f0       	brmi	.+6      	; 0x1928 <__fixunssfsi+0x24>
    1922:	ba 95       	dec	r27
    1924:	c9 f7       	brne	.-14     	; 0x1918 <__fixunssfsi+0x14>
    1926:	14 c0       	rjmp	.+40     	; 0x1950 <__fixunssfsi+0x4c>
    1928:	b1 30       	cpi	r27, 0x01	; 1
    192a:	91 f0       	breq	.+36     	; 0x1950 <__fixunssfsi+0x4c>
    192c:	0e 94 38 0d 	call	0x1a70	; 0x1a70 <__fp_zero>
    1930:	b1 e0       	ldi	r27, 0x01	; 1
    1932:	08 95       	ret
    1934:	0c 94 38 0d 	jmp	0x1a70	; 0x1a70 <__fp_zero>
    1938:	67 2f       	mov	r22, r23
    193a:	78 2f       	mov	r23, r24
    193c:	88 27       	eor	r24, r24
    193e:	b8 5f       	subi	r27, 0xF8	; 248
    1940:	39 f0       	breq	.+14     	; 0x1950 <__fixunssfsi+0x4c>
    1942:	b9 3f       	cpi	r27, 0xF9	; 249
    1944:	cc f3       	brlt	.-14     	; 0x1938 <__fixunssfsi+0x34>
    1946:	86 95       	lsr	r24
    1948:	77 95       	ror	r23
    194a:	67 95       	ror	r22
    194c:	b3 95       	inc	r27
    194e:	d9 f7       	brne	.-10     	; 0x1946 <__fixunssfsi+0x42>
    1950:	3e f4       	brtc	.+14     	; 0x1960 <__fixunssfsi+0x5c>
    1952:	90 95       	com	r25
    1954:	80 95       	com	r24
    1956:	70 95       	com	r23
    1958:	61 95       	neg	r22
    195a:	7f 4f       	sbci	r23, 0xFF	; 255
    195c:	8f 4f       	sbci	r24, 0xFF	; 255
    195e:	9f 4f       	sbci	r25, 0xFF	; 255
    1960:	08 95       	ret

00001962 <__floatunsisf>:
    1962:	e8 94       	clt
    1964:	09 c0       	rjmp	.+18     	; 0x1978 <__floatsisf+0x12>

00001966 <__floatsisf>:
    1966:	97 fb       	bst	r25, 7
    1968:	3e f4       	brtc	.+14     	; 0x1978 <__floatsisf+0x12>
    196a:	90 95       	com	r25
    196c:	80 95       	com	r24
    196e:	70 95       	com	r23
    1970:	61 95       	neg	r22
    1972:	7f 4f       	sbci	r23, 0xFF	; 255
    1974:	8f 4f       	sbci	r24, 0xFF	; 255
    1976:	9f 4f       	sbci	r25, 0xFF	; 255
    1978:	99 23       	and	r25, r25
    197a:	a9 f0       	breq	.+42     	; 0x19a6 <__floatsisf+0x40>
    197c:	f9 2f       	mov	r31, r25
    197e:	96 e9       	ldi	r25, 0x96	; 150
    1980:	bb 27       	eor	r27, r27
    1982:	93 95       	inc	r25
    1984:	f6 95       	lsr	r31
    1986:	87 95       	ror	r24
    1988:	77 95       	ror	r23
    198a:	67 95       	ror	r22
    198c:	b7 95       	ror	r27
    198e:	f1 11       	cpse	r31, r1
    1990:	f8 cf       	rjmp	.-16     	; 0x1982 <__floatsisf+0x1c>
    1992:	fa f4       	brpl	.+62     	; 0x19d2 <__floatsisf+0x6c>
    1994:	bb 0f       	add	r27, r27
    1996:	11 f4       	brne	.+4      	; 0x199c <__floatsisf+0x36>
    1998:	60 ff       	sbrs	r22, 0
    199a:	1b c0       	rjmp	.+54     	; 0x19d2 <__floatsisf+0x6c>
    199c:	6f 5f       	subi	r22, 0xFF	; 255
    199e:	7f 4f       	sbci	r23, 0xFF	; 255
    19a0:	8f 4f       	sbci	r24, 0xFF	; 255
    19a2:	9f 4f       	sbci	r25, 0xFF	; 255
    19a4:	16 c0       	rjmp	.+44     	; 0x19d2 <__floatsisf+0x6c>
    19a6:	88 23       	and	r24, r24
    19a8:	11 f0       	breq	.+4      	; 0x19ae <__floatsisf+0x48>
    19aa:	96 e9       	ldi	r25, 0x96	; 150
    19ac:	11 c0       	rjmp	.+34     	; 0x19d0 <__floatsisf+0x6a>
    19ae:	77 23       	and	r23, r23
    19b0:	21 f0       	breq	.+8      	; 0x19ba <__floatsisf+0x54>
    19b2:	9e e8       	ldi	r25, 0x8E	; 142
    19b4:	87 2f       	mov	r24, r23
    19b6:	76 2f       	mov	r23, r22
    19b8:	05 c0       	rjmp	.+10     	; 0x19c4 <__floatsisf+0x5e>
    19ba:	66 23       	and	r22, r22
    19bc:	71 f0       	breq	.+28     	; 0x19da <__floatsisf+0x74>
    19be:	96 e8       	ldi	r25, 0x86	; 134
    19c0:	86 2f       	mov	r24, r22
    19c2:	70 e0       	ldi	r23, 0x00	; 0
    19c4:	60 e0       	ldi	r22, 0x00	; 0
    19c6:	2a f0       	brmi	.+10     	; 0x19d2 <__floatsisf+0x6c>
    19c8:	9a 95       	dec	r25
    19ca:	66 0f       	add	r22, r22
    19cc:	77 1f       	adc	r23, r23
    19ce:	88 1f       	adc	r24, r24
    19d0:	da f7       	brpl	.-10     	; 0x19c8 <__floatsisf+0x62>
    19d2:	88 0f       	add	r24, r24
    19d4:	96 95       	lsr	r25
    19d6:	87 95       	ror	r24
    19d8:	97 f9       	bld	r25, 7
    19da:	08 95       	ret

000019dc <__fp_inf>:
    19dc:	97 f9       	bld	r25, 7
    19de:	9f 67       	ori	r25, 0x7F	; 127
    19e0:	80 e8       	ldi	r24, 0x80	; 128
    19e2:	70 e0       	ldi	r23, 0x00	; 0
    19e4:	60 e0       	ldi	r22, 0x00	; 0
    19e6:	08 95       	ret

000019e8 <__fp_nan>:
    19e8:	9f ef       	ldi	r25, 0xFF	; 255
    19ea:	80 ec       	ldi	r24, 0xC0	; 192
    19ec:	08 95       	ret

000019ee <__fp_pscA>:
    19ee:	00 24       	eor	r0, r0
    19f0:	0a 94       	dec	r0
    19f2:	16 16       	cp	r1, r22
    19f4:	17 06       	cpc	r1, r23
    19f6:	18 06       	cpc	r1, r24
    19f8:	09 06       	cpc	r0, r25
    19fa:	08 95       	ret

000019fc <__fp_pscB>:
    19fc:	00 24       	eor	r0, r0
    19fe:	0a 94       	dec	r0
    1a00:	12 16       	cp	r1, r18
    1a02:	13 06       	cpc	r1, r19
    1a04:	14 06       	cpc	r1, r20
    1a06:	05 06       	cpc	r0, r21
    1a08:	08 95       	ret

00001a0a <__fp_round>:
    1a0a:	09 2e       	mov	r0, r25
    1a0c:	03 94       	inc	r0
    1a0e:	00 0c       	add	r0, r0
    1a10:	11 f4       	brne	.+4      	; 0x1a16 <__fp_round+0xc>
    1a12:	88 23       	and	r24, r24
    1a14:	52 f0       	brmi	.+20     	; 0x1a2a <__fp_round+0x20>
    1a16:	bb 0f       	add	r27, r27
    1a18:	40 f4       	brcc	.+16     	; 0x1a2a <__fp_round+0x20>
    1a1a:	bf 2b       	or	r27, r31
    1a1c:	11 f4       	brne	.+4      	; 0x1a22 <__fp_round+0x18>
    1a1e:	60 ff       	sbrs	r22, 0
    1a20:	04 c0       	rjmp	.+8      	; 0x1a2a <__fp_round+0x20>
    1a22:	6f 5f       	subi	r22, 0xFF	; 255
    1a24:	7f 4f       	sbci	r23, 0xFF	; 255
    1a26:	8f 4f       	sbci	r24, 0xFF	; 255
    1a28:	9f 4f       	sbci	r25, 0xFF	; 255
    1a2a:	08 95       	ret

00001a2c <__fp_split3>:
    1a2c:	57 fd       	sbrc	r21, 7
    1a2e:	90 58       	subi	r25, 0x80	; 128
    1a30:	44 0f       	add	r20, r20
    1a32:	55 1f       	adc	r21, r21
    1a34:	59 f0       	breq	.+22     	; 0x1a4c <__fp_splitA+0x10>
    1a36:	5f 3f       	cpi	r21, 0xFF	; 255
    1a38:	71 f0       	breq	.+28     	; 0x1a56 <__fp_splitA+0x1a>
    1a3a:	47 95       	ror	r20

00001a3c <__fp_splitA>:
    1a3c:	88 0f       	add	r24, r24
    1a3e:	97 fb       	bst	r25, 7
    1a40:	99 1f       	adc	r25, r25
    1a42:	61 f0       	breq	.+24     	; 0x1a5c <__fp_splitA+0x20>
    1a44:	9f 3f       	cpi	r25, 0xFF	; 255
    1a46:	79 f0       	breq	.+30     	; 0x1a66 <__fp_splitA+0x2a>
    1a48:	87 95       	ror	r24
    1a4a:	08 95       	ret
    1a4c:	12 16       	cp	r1, r18
    1a4e:	13 06       	cpc	r1, r19
    1a50:	14 06       	cpc	r1, r20
    1a52:	55 1f       	adc	r21, r21
    1a54:	f2 cf       	rjmp	.-28     	; 0x1a3a <__fp_split3+0xe>
    1a56:	46 95       	lsr	r20
    1a58:	f1 df       	rcall	.-30     	; 0x1a3c <__fp_splitA>
    1a5a:	08 c0       	rjmp	.+16     	; 0x1a6c <__fp_splitA+0x30>
    1a5c:	16 16       	cp	r1, r22
    1a5e:	17 06       	cpc	r1, r23
    1a60:	18 06       	cpc	r1, r24
    1a62:	99 1f       	adc	r25, r25
    1a64:	f1 cf       	rjmp	.-30     	; 0x1a48 <__fp_splitA+0xc>
    1a66:	86 95       	lsr	r24
    1a68:	71 05       	cpc	r23, r1
    1a6a:	61 05       	cpc	r22, r1
    1a6c:	08 94       	sec
    1a6e:	08 95       	ret

00001a70 <__fp_zero>:
    1a70:	e8 94       	clt

00001a72 <__fp_szero>:
    1a72:	bb 27       	eor	r27, r27
    1a74:	66 27       	eor	r22, r22
    1a76:	77 27       	eor	r23, r23
    1a78:	cb 01       	movw	r24, r22
    1a7a:	97 f9       	bld	r25, 7
    1a7c:	08 95       	ret
    1a7e:	16 f0       	brts	.+4      	; 0x1a84 <__fp_szero+0x12>
    1a80:	0c 94 f8 0d 	jmp	0x1bf0	; 0x1bf0 <__fp_mpack>
    1a84:	0c 94 f4 0c 	jmp	0x19e8	; 0x19e8 <__fp_nan>
    1a88:	68 94       	set
    1a8a:	0c 94 ee 0c 	jmp	0x19dc	; 0x19dc <__fp_inf>

00001a8e <log>:
    1a8e:	0e 94 1e 0d 	call	0x1a3c	; 0x1a3c <__fp_splitA>
    1a92:	a8 f3       	brcs	.-22     	; 0x1a7e <__fp_szero+0xc>
    1a94:	99 23       	and	r25, r25
    1a96:	c1 f3       	breq	.-16     	; 0x1a88 <__fp_szero+0x16>
    1a98:	ae f3       	brts	.-22     	; 0x1a84 <__fp_szero+0x12>
    1a9a:	df 93       	push	r29
    1a9c:	cf 93       	push	r28
    1a9e:	1f 93       	push	r17
    1aa0:	0f 93       	push	r16
    1aa2:	ff 92       	push	r15
    1aa4:	c9 2f       	mov	r28, r25
    1aa6:	dd 27       	eor	r29, r29
    1aa8:	88 23       	and	r24, r24
    1aaa:	2a f0       	brmi	.+10     	; 0x1ab6 <log+0x28>
    1aac:	21 97       	sbiw	r28, 0x01	; 1
    1aae:	66 0f       	add	r22, r22
    1ab0:	77 1f       	adc	r23, r23
    1ab2:	88 1f       	adc	r24, r24
    1ab4:	da f7       	brpl	.-10     	; 0x1aac <log+0x1e>
    1ab6:	20 e0       	ldi	r18, 0x00	; 0
    1ab8:	30 e0       	ldi	r19, 0x00	; 0
    1aba:	40 e8       	ldi	r20, 0x80	; 128
    1abc:	5f eb       	ldi	r21, 0xBF	; 191
    1abe:	9f e3       	ldi	r25, 0x3F	; 63
    1ac0:	88 39       	cpi	r24, 0x98	; 152
    1ac2:	20 f0       	brcs	.+8      	; 0x1acc <log+0x3e>
    1ac4:	80 3e       	cpi	r24, 0xE0	; 224
    1ac6:	38 f0       	brcs	.+14     	; 0x1ad6 <log+0x48>
    1ac8:	21 96       	adiw	r28, 0x01	; 1
    1aca:	8f 77       	andi	r24, 0x7F	; 127
    1acc:	0e 94 9d 0b 	call	0x173a	; 0x173a <__addsf3>
    1ad0:	e2 e7       	ldi	r30, 0x72	; 114
    1ad2:	f0 e0       	ldi	r31, 0x00	; 0
    1ad4:	04 c0       	rjmp	.+8      	; 0x1ade <log+0x50>
    1ad6:	0e 94 9d 0b 	call	0x173a	; 0x173a <__addsf3>
    1ada:	ef e9       	ldi	r30, 0x9F	; 159
    1adc:	f0 e0       	ldi	r31, 0x00	; 0
    1ade:	0e 94 06 0e 	call	0x1c0c	; 0x1c0c <__fp_powser>
    1ae2:	8b 01       	movw	r16, r22
    1ae4:	be 01       	movw	r22, r28
    1ae6:	ec 01       	movw	r28, r24
    1ae8:	fb 2e       	mov	r15, r27
    1aea:	6f 57       	subi	r22, 0x7F	; 127
    1aec:	71 09       	sbc	r23, r1
    1aee:	75 95       	asr	r23
    1af0:	77 1f       	adc	r23, r23
    1af2:	88 0b       	sbc	r24, r24
    1af4:	99 0b       	sbc	r25, r25
    1af6:	0e 94 b3 0c 	call	0x1966	; 0x1966 <__floatsisf>
    1afa:	28 e1       	ldi	r18, 0x18	; 24
    1afc:	32 e7       	ldi	r19, 0x72	; 114
    1afe:	41 e3       	ldi	r20, 0x31	; 49
    1b00:	5f e3       	ldi	r21, 0x3F	; 63
    1b02:	0e 94 9e 0d 	call	0x1b3c	; 0x1b3c <__mulsf3x>
    1b06:	af 2d       	mov	r26, r15
    1b08:	98 01       	movw	r18, r16
    1b0a:	ae 01       	movw	r20, r28
    1b0c:	ff 90       	pop	r15
    1b0e:	0f 91       	pop	r16
    1b10:	1f 91       	pop	r17
    1b12:	cf 91       	pop	r28
    1b14:	df 91       	pop	r29
    1b16:	0e 94 b4 0b 	call	0x1768	; 0x1768 <__addsf3x>
    1b1a:	0c 94 05 0d 	jmp	0x1a0a	; 0x1a0a <__fp_round>
    1b1e:	0e 94 f7 0c 	call	0x19ee	; 0x19ee <__fp_pscA>
    1b22:	38 f0       	brcs	.+14     	; 0x1b32 <log+0xa4>
    1b24:	0e 94 fe 0c 	call	0x19fc	; 0x19fc <__fp_pscB>
    1b28:	20 f0       	brcs	.+8      	; 0x1b32 <log+0xa4>
    1b2a:	95 23       	and	r25, r21
    1b2c:	11 f0       	breq	.+4      	; 0x1b32 <log+0xa4>
    1b2e:	0c 94 ee 0c 	jmp	0x19dc	; 0x19dc <__fp_inf>
    1b32:	0c 94 f4 0c 	jmp	0x19e8	; 0x19e8 <__fp_nan>
    1b36:	11 24       	eor	r1, r1
    1b38:	0c 94 39 0d 	jmp	0x1a72	; 0x1a72 <__fp_szero>

00001b3c <__mulsf3x>:
    1b3c:	0e 94 16 0d 	call	0x1a2c	; 0x1a2c <__fp_split3>
    1b40:	70 f3       	brcs	.-36     	; 0x1b1e <log+0x90>

00001b42 <__mulsf3_pse>:
    1b42:	95 9f       	mul	r25, r21
    1b44:	c1 f3       	breq	.-16     	; 0x1b36 <log+0xa8>
    1b46:	95 0f       	add	r25, r21
    1b48:	50 e0       	ldi	r21, 0x00	; 0
    1b4a:	55 1f       	adc	r21, r21
    1b4c:	62 9f       	mul	r22, r18
    1b4e:	f0 01       	movw	r30, r0
    1b50:	72 9f       	mul	r23, r18
    1b52:	bb 27       	eor	r27, r27
    1b54:	f0 0d       	add	r31, r0
    1b56:	b1 1d       	adc	r27, r1
    1b58:	63 9f       	mul	r22, r19
    1b5a:	aa 27       	eor	r26, r26
    1b5c:	f0 0d       	add	r31, r0
    1b5e:	b1 1d       	adc	r27, r1
    1b60:	aa 1f       	adc	r26, r26
    1b62:	64 9f       	mul	r22, r20
    1b64:	66 27       	eor	r22, r22
    1b66:	b0 0d       	add	r27, r0
    1b68:	a1 1d       	adc	r26, r1
    1b6a:	66 1f       	adc	r22, r22
    1b6c:	82 9f       	mul	r24, r18
    1b6e:	22 27       	eor	r18, r18
    1b70:	b0 0d       	add	r27, r0
    1b72:	a1 1d       	adc	r26, r1
    1b74:	62 1f       	adc	r22, r18
    1b76:	73 9f       	mul	r23, r19
    1b78:	b0 0d       	add	r27, r0
    1b7a:	a1 1d       	adc	r26, r1
    1b7c:	62 1f       	adc	r22, r18
    1b7e:	83 9f       	mul	r24, r19
    1b80:	a0 0d       	add	r26, r0
    1b82:	61 1d       	adc	r22, r1
    1b84:	22 1f       	adc	r18, r18
    1b86:	74 9f       	mul	r23, r20
    1b88:	33 27       	eor	r19, r19
    1b8a:	a0 0d       	add	r26, r0
    1b8c:	61 1d       	adc	r22, r1
    1b8e:	23 1f       	adc	r18, r19
    1b90:	84 9f       	mul	r24, r20
    1b92:	60 0d       	add	r22, r0
    1b94:	21 1d       	adc	r18, r1
    1b96:	82 2f       	mov	r24, r18
    1b98:	76 2f       	mov	r23, r22
    1b9a:	6a 2f       	mov	r22, r26
    1b9c:	11 24       	eor	r1, r1
    1b9e:	9f 57       	subi	r25, 0x7F	; 127
    1ba0:	50 40       	sbci	r21, 0x00	; 0
    1ba2:	9a f0       	brmi	.+38     	; 0x1bca <__mulsf3_pse+0x88>
    1ba4:	f1 f0       	breq	.+60     	; 0x1be2 <__mulsf3_pse+0xa0>
    1ba6:	88 23       	and	r24, r24
    1ba8:	4a f0       	brmi	.+18     	; 0x1bbc <__mulsf3_pse+0x7a>
    1baa:	ee 0f       	add	r30, r30
    1bac:	ff 1f       	adc	r31, r31
    1bae:	bb 1f       	adc	r27, r27
    1bb0:	66 1f       	adc	r22, r22
    1bb2:	77 1f       	adc	r23, r23
    1bb4:	88 1f       	adc	r24, r24
    1bb6:	91 50       	subi	r25, 0x01	; 1
    1bb8:	50 40       	sbci	r21, 0x00	; 0
    1bba:	a9 f7       	brne	.-22     	; 0x1ba6 <__mulsf3_pse+0x64>
    1bbc:	9e 3f       	cpi	r25, 0xFE	; 254
    1bbe:	51 05       	cpc	r21, r1
    1bc0:	80 f0       	brcs	.+32     	; 0x1be2 <__mulsf3_pse+0xa0>
    1bc2:	0c 94 ee 0c 	jmp	0x19dc	; 0x19dc <__fp_inf>
    1bc6:	0c 94 39 0d 	jmp	0x1a72	; 0x1a72 <__fp_szero>
    1bca:	5f 3f       	cpi	r21, 0xFF	; 255
    1bcc:	e4 f3       	brlt	.-8      	; 0x1bc6 <__mulsf3_pse+0x84>
    1bce:	98 3e       	cpi	r25, 0xE8	; 232
    1bd0:	d4 f3       	brlt	.-12     	; 0x1bc6 <__mulsf3_pse+0x84>
    1bd2:	86 95       	lsr	r24
    1bd4:	77 95       	ror	r23
    1bd6:	67 95       	ror	r22
    1bd8:	b7 95       	ror	r27
    1bda:	f7 95       	ror	r31
    1bdc:	e7 95       	ror	r30
    1bde:	9f 5f       	subi	r25, 0xFF	; 255
    1be0:	c1 f7       	brne	.-16     	; 0x1bd2 <__mulsf3_pse+0x90>
    1be2:	fe 2b       	or	r31, r30
    1be4:	88 0f       	add	r24, r24
    1be6:	91 1d       	adc	r25, r1
    1be8:	96 95       	lsr	r25
    1bea:	87 95       	ror	r24
    1bec:	97 f9       	bld	r25, 7
    1bee:	08 95       	ret

00001bf0 <__fp_mpack>:
    1bf0:	9f 3f       	cpi	r25, 0xFF	; 255
    1bf2:	31 f0       	breq	.+12     	; 0x1c00 <__fp_mpack_finite+0xc>

00001bf4 <__fp_mpack_finite>:
    1bf4:	91 50       	subi	r25, 0x01	; 1
    1bf6:	20 f4       	brcc	.+8      	; 0x1c00 <__fp_mpack_finite+0xc>
    1bf8:	87 95       	ror	r24
    1bfa:	77 95       	ror	r23
    1bfc:	67 95       	ror	r22
    1bfe:	b7 95       	ror	r27
    1c00:	88 0f       	add	r24, r24
    1c02:	91 1d       	adc	r25, r1
    1c04:	96 95       	lsr	r25
    1c06:	87 95       	ror	r24
    1c08:	97 f9       	bld	r25, 7
    1c0a:	08 95       	ret

00001c0c <__fp_powser>:
    1c0c:	df 93       	push	r29
    1c0e:	cf 93       	push	r28
    1c10:	1f 93       	push	r17
    1c12:	0f 93       	push	r16
    1c14:	ff 92       	push	r15
    1c16:	ef 92       	push	r14
    1c18:	df 92       	push	r13
    1c1a:	7b 01       	movw	r14, r22
    1c1c:	8c 01       	movw	r16, r24
    1c1e:	68 94       	set
    1c20:	06 c0       	rjmp	.+12     	; 0x1c2e <__fp_powser+0x22>
    1c22:	da 2e       	mov	r13, r26
    1c24:	ef 01       	movw	r28, r30
    1c26:	0e 94 9e 0d 	call	0x1b3c	; 0x1b3c <__mulsf3x>
    1c2a:	fe 01       	movw	r30, r28
    1c2c:	e8 94       	clt
    1c2e:	a5 91       	lpm	r26, Z+
    1c30:	25 91       	lpm	r18, Z+
    1c32:	35 91       	lpm	r19, Z+
    1c34:	45 91       	lpm	r20, Z+
    1c36:	55 91       	lpm	r21, Z+
    1c38:	a6 f3       	brts	.-24     	; 0x1c22 <__fp_powser+0x16>
    1c3a:	ef 01       	movw	r28, r30
    1c3c:	0e 94 b4 0b 	call	0x1768	; 0x1768 <__addsf3x>
    1c40:	fe 01       	movw	r30, r28
    1c42:	97 01       	movw	r18, r14
    1c44:	a8 01       	movw	r20, r16
    1c46:	da 94       	dec	r13
    1c48:	69 f7       	brne	.-38     	; 0x1c24 <__fp_powser+0x18>
    1c4a:	df 90       	pop	r13
    1c4c:	ef 90       	pop	r14
    1c4e:	ff 90       	pop	r15
    1c50:	0f 91       	pop	r16
    1c52:	1f 91       	pop	r17
    1c54:	cf 91       	pop	r28
    1c56:	df 91       	pop	r29
    1c58:	08 95       	ret

00001c5a <dtostrf>:
    1c5a:	ef 92       	push	r14
    1c5c:	0f 93       	push	r16
    1c5e:	1f 93       	push	r17
    1c60:	cf 93       	push	r28
    1c62:	df 93       	push	r29
    1c64:	e8 01       	movw	r28, r16
    1c66:	47 fd       	sbrc	r20, 7
    1c68:	02 c0       	rjmp	.+4      	; 0x1c6e <dtostrf+0x14>
    1c6a:	34 e0       	ldi	r19, 0x04	; 4
    1c6c:	01 c0       	rjmp	.+2      	; 0x1c70 <dtostrf+0x16>
    1c6e:	34 e1       	ldi	r19, 0x14	; 20
    1c70:	04 2e       	mov	r0, r20
    1c72:	00 0c       	add	r0, r0
    1c74:	55 0b       	sbc	r21, r21
    1c76:	57 ff       	sbrs	r21, 7
    1c78:	03 c0       	rjmp	.+6      	; 0x1c80 <dtostrf+0x26>
    1c7a:	51 95       	neg	r21
    1c7c:	41 95       	neg	r20
    1c7e:	51 09       	sbc	r21, r1
    1c80:	e3 2e       	mov	r14, r19
    1c82:	02 2f       	mov	r16, r18
    1c84:	24 2f       	mov	r18, r20
    1c86:	ae 01       	movw	r20, r28
    1c88:	0e 94 57 10 	call	0x20ae	; 0x20ae <dtoa_prf>
    1c8c:	ce 01       	movw	r24, r28
    1c8e:	df 91       	pop	r29
    1c90:	cf 91       	pop	r28
    1c92:	1f 91       	pop	r17
    1c94:	0f 91       	pop	r16
    1c96:	ef 90       	pop	r14
    1c98:	08 95       	ret

00001c9a <strcpy>:
    1c9a:	fb 01       	movw	r30, r22
    1c9c:	dc 01       	movw	r26, r24
    1c9e:	01 90       	ld	r0, Z+
    1ca0:	0d 92       	st	X+, r0
    1ca2:	00 20       	and	r0, r0
    1ca4:	e1 f7       	brne	.-8      	; 0x1c9e <strcpy+0x4>
    1ca6:	08 95       	ret

00001ca8 <sprintf>:
    1ca8:	ae e0       	ldi	r26, 0x0E	; 14
    1caa:	b0 e0       	ldi	r27, 0x00	; 0
    1cac:	ea e5       	ldi	r30, 0x5A	; 90
    1cae:	fe e0       	ldi	r31, 0x0E	; 14
    1cb0:	0c 94 76 13 	jmp	0x26ec	; 0x26ec <__prologue_saves__+0x1c>
    1cb4:	0d 89       	ldd	r16, Y+21	; 0x15
    1cb6:	1e 89       	ldd	r17, Y+22	; 0x16
    1cb8:	86 e0       	ldi	r24, 0x06	; 6
    1cba:	8c 83       	std	Y+4, r24	; 0x04
    1cbc:	1a 83       	std	Y+2, r17	; 0x02
    1cbe:	09 83       	std	Y+1, r16	; 0x01
    1cc0:	8f ef       	ldi	r24, 0xFF	; 255
    1cc2:	9f e7       	ldi	r25, 0x7F	; 127
    1cc4:	9e 83       	std	Y+6, r25	; 0x06
    1cc6:	8d 83       	std	Y+5, r24	; 0x05
    1cc8:	ae 01       	movw	r20, r28
    1cca:	47 5e       	subi	r20, 0xE7	; 231
    1ccc:	5f 4f       	sbci	r21, 0xFF	; 255
    1cce:	6f 89       	ldd	r22, Y+23	; 0x17
    1cd0:	78 8d       	ldd	r23, Y+24	; 0x18
    1cd2:	ce 01       	movw	r24, r28
    1cd4:	01 96       	adiw	r24, 0x01	; 1
    1cd6:	0e 94 76 0e 	call	0x1cec	; 0x1cec <vfprintf>
    1cda:	ef 81       	ldd	r30, Y+7	; 0x07
    1cdc:	f8 85       	ldd	r31, Y+8	; 0x08
    1cde:	e0 0f       	add	r30, r16
    1ce0:	f1 1f       	adc	r31, r17
    1ce2:	10 82       	st	Z, r1
    1ce4:	2e 96       	adiw	r28, 0x0e	; 14
    1ce6:	e4 e0       	ldi	r30, 0x04	; 4
    1ce8:	0c 94 92 13 	jmp	0x2724	; 0x2724 <__epilogue_restores__+0x1c>

00001cec <vfprintf>:
    1cec:	ab e0       	ldi	r26, 0x0B	; 11
    1cee:	b0 e0       	ldi	r27, 0x00	; 0
    1cf0:	ec e7       	ldi	r30, 0x7C	; 124
    1cf2:	fe e0       	ldi	r31, 0x0E	; 14
    1cf4:	0c 94 68 13 	jmp	0x26d0	; 0x26d0 <__prologue_saves__>
    1cf8:	6c 01       	movw	r12, r24
    1cfa:	7b 01       	movw	r14, r22
    1cfc:	8a 01       	movw	r16, r20
    1cfe:	fc 01       	movw	r30, r24
    1d00:	17 82       	std	Z+7, r1	; 0x07
    1d02:	16 82       	std	Z+6, r1	; 0x06
    1d04:	83 81       	ldd	r24, Z+3	; 0x03
    1d06:	81 ff       	sbrs	r24, 1
    1d08:	cc c1       	rjmp	.+920    	; 0x20a2 <vfprintf+0x3b6>
    1d0a:	ce 01       	movw	r24, r28
    1d0c:	01 96       	adiw	r24, 0x01	; 1
    1d0e:	3c 01       	movw	r6, r24
    1d10:	f6 01       	movw	r30, r12
    1d12:	93 81       	ldd	r25, Z+3	; 0x03
    1d14:	f7 01       	movw	r30, r14
    1d16:	93 fd       	sbrc	r25, 3
    1d18:	85 91       	lpm	r24, Z+
    1d1a:	93 ff       	sbrs	r25, 3
    1d1c:	81 91       	ld	r24, Z+
    1d1e:	7f 01       	movw	r14, r30
    1d20:	88 23       	and	r24, r24
    1d22:	09 f4       	brne	.+2      	; 0x1d26 <vfprintf+0x3a>
    1d24:	ba c1       	rjmp	.+884    	; 0x209a <vfprintf+0x3ae>
    1d26:	85 32       	cpi	r24, 0x25	; 37
    1d28:	39 f4       	brne	.+14     	; 0x1d38 <vfprintf+0x4c>
    1d2a:	93 fd       	sbrc	r25, 3
    1d2c:	85 91       	lpm	r24, Z+
    1d2e:	93 ff       	sbrs	r25, 3
    1d30:	81 91       	ld	r24, Z+
    1d32:	7f 01       	movw	r14, r30
    1d34:	85 32       	cpi	r24, 0x25	; 37
    1d36:	29 f4       	brne	.+10     	; 0x1d42 <vfprintf+0x56>
    1d38:	b6 01       	movw	r22, r12
    1d3a:	90 e0       	ldi	r25, 0x00	; 0
    1d3c:	0e 94 9f 12 	call	0x253e	; 0x253e <fputc>
    1d40:	e7 cf       	rjmp	.-50     	; 0x1d10 <vfprintf+0x24>
    1d42:	91 2c       	mov	r9, r1
    1d44:	21 2c       	mov	r2, r1
    1d46:	31 2c       	mov	r3, r1
    1d48:	ff e1       	ldi	r31, 0x1F	; 31
    1d4a:	f3 15       	cp	r31, r3
    1d4c:	d8 f0       	brcs	.+54     	; 0x1d84 <vfprintf+0x98>
    1d4e:	8b 32       	cpi	r24, 0x2B	; 43
    1d50:	79 f0       	breq	.+30     	; 0x1d70 <vfprintf+0x84>
    1d52:	38 f4       	brcc	.+14     	; 0x1d62 <vfprintf+0x76>
    1d54:	80 32       	cpi	r24, 0x20	; 32
    1d56:	79 f0       	breq	.+30     	; 0x1d76 <vfprintf+0x8a>
    1d58:	83 32       	cpi	r24, 0x23	; 35
    1d5a:	a1 f4       	brne	.+40     	; 0x1d84 <vfprintf+0x98>
    1d5c:	23 2d       	mov	r18, r3
    1d5e:	20 61       	ori	r18, 0x10	; 16
    1d60:	1d c0       	rjmp	.+58     	; 0x1d9c <vfprintf+0xb0>
    1d62:	8d 32       	cpi	r24, 0x2D	; 45
    1d64:	61 f0       	breq	.+24     	; 0x1d7e <vfprintf+0x92>
    1d66:	80 33       	cpi	r24, 0x30	; 48
    1d68:	69 f4       	brne	.+26     	; 0x1d84 <vfprintf+0x98>
    1d6a:	23 2d       	mov	r18, r3
    1d6c:	21 60       	ori	r18, 0x01	; 1
    1d6e:	16 c0       	rjmp	.+44     	; 0x1d9c <vfprintf+0xb0>
    1d70:	83 2d       	mov	r24, r3
    1d72:	82 60       	ori	r24, 0x02	; 2
    1d74:	38 2e       	mov	r3, r24
    1d76:	e3 2d       	mov	r30, r3
    1d78:	e4 60       	ori	r30, 0x04	; 4
    1d7a:	3e 2e       	mov	r3, r30
    1d7c:	2a c0       	rjmp	.+84     	; 0x1dd2 <vfprintf+0xe6>
    1d7e:	f3 2d       	mov	r31, r3
    1d80:	f8 60       	ori	r31, 0x08	; 8
    1d82:	1d c0       	rjmp	.+58     	; 0x1dbe <vfprintf+0xd2>
    1d84:	37 fc       	sbrc	r3, 7
    1d86:	2d c0       	rjmp	.+90     	; 0x1de2 <vfprintf+0xf6>
    1d88:	20 ed       	ldi	r18, 0xD0	; 208
    1d8a:	28 0f       	add	r18, r24
    1d8c:	2a 30       	cpi	r18, 0x0A	; 10
    1d8e:	40 f0       	brcs	.+16     	; 0x1da0 <vfprintf+0xb4>
    1d90:	8e 32       	cpi	r24, 0x2E	; 46
    1d92:	b9 f4       	brne	.+46     	; 0x1dc2 <vfprintf+0xd6>
    1d94:	36 fc       	sbrc	r3, 6
    1d96:	81 c1       	rjmp	.+770    	; 0x209a <vfprintf+0x3ae>
    1d98:	23 2d       	mov	r18, r3
    1d9a:	20 64       	ori	r18, 0x40	; 64
    1d9c:	32 2e       	mov	r3, r18
    1d9e:	19 c0       	rjmp	.+50     	; 0x1dd2 <vfprintf+0xe6>
    1da0:	36 fe       	sbrs	r3, 6
    1da2:	06 c0       	rjmp	.+12     	; 0x1db0 <vfprintf+0xc4>
    1da4:	8a e0       	ldi	r24, 0x0A	; 10
    1da6:	98 9e       	mul	r9, r24
    1da8:	20 0d       	add	r18, r0
    1daa:	11 24       	eor	r1, r1
    1dac:	92 2e       	mov	r9, r18
    1dae:	11 c0       	rjmp	.+34     	; 0x1dd2 <vfprintf+0xe6>
    1db0:	ea e0       	ldi	r30, 0x0A	; 10
    1db2:	2e 9e       	mul	r2, r30
    1db4:	20 0d       	add	r18, r0
    1db6:	11 24       	eor	r1, r1
    1db8:	22 2e       	mov	r2, r18
    1dba:	f3 2d       	mov	r31, r3
    1dbc:	f0 62       	ori	r31, 0x20	; 32
    1dbe:	3f 2e       	mov	r3, r31
    1dc0:	08 c0       	rjmp	.+16     	; 0x1dd2 <vfprintf+0xe6>
    1dc2:	8c 36       	cpi	r24, 0x6C	; 108
    1dc4:	21 f4       	brne	.+8      	; 0x1dce <vfprintf+0xe2>
    1dc6:	83 2d       	mov	r24, r3
    1dc8:	80 68       	ori	r24, 0x80	; 128
    1dca:	38 2e       	mov	r3, r24
    1dcc:	02 c0       	rjmp	.+4      	; 0x1dd2 <vfprintf+0xe6>
    1dce:	88 36       	cpi	r24, 0x68	; 104
    1dd0:	41 f4       	brne	.+16     	; 0x1de2 <vfprintf+0xf6>
    1dd2:	f7 01       	movw	r30, r14
    1dd4:	93 fd       	sbrc	r25, 3
    1dd6:	85 91       	lpm	r24, Z+
    1dd8:	93 ff       	sbrs	r25, 3
    1dda:	81 91       	ld	r24, Z+
    1ddc:	7f 01       	movw	r14, r30
    1dde:	81 11       	cpse	r24, r1
    1de0:	b3 cf       	rjmp	.-154    	; 0x1d48 <vfprintf+0x5c>
    1de2:	98 2f       	mov	r25, r24
    1de4:	9f 7d       	andi	r25, 0xDF	; 223
    1de6:	95 54       	subi	r25, 0x45	; 69
    1de8:	93 30       	cpi	r25, 0x03	; 3
    1dea:	28 f4       	brcc	.+10     	; 0x1df6 <vfprintf+0x10a>
    1dec:	0c 5f       	subi	r16, 0xFC	; 252
    1dee:	1f 4f       	sbci	r17, 0xFF	; 255
    1df0:	9f e3       	ldi	r25, 0x3F	; 63
    1df2:	99 83       	std	Y+1, r25	; 0x01
    1df4:	0d c0       	rjmp	.+26     	; 0x1e10 <vfprintf+0x124>
    1df6:	83 36       	cpi	r24, 0x63	; 99
    1df8:	31 f0       	breq	.+12     	; 0x1e06 <vfprintf+0x11a>
    1dfa:	83 37       	cpi	r24, 0x73	; 115
    1dfc:	71 f0       	breq	.+28     	; 0x1e1a <vfprintf+0x12e>
    1dfe:	83 35       	cpi	r24, 0x53	; 83
    1e00:	09 f0       	breq	.+2      	; 0x1e04 <vfprintf+0x118>
    1e02:	59 c0       	rjmp	.+178    	; 0x1eb6 <vfprintf+0x1ca>
    1e04:	21 c0       	rjmp	.+66     	; 0x1e48 <vfprintf+0x15c>
    1e06:	f8 01       	movw	r30, r16
    1e08:	80 81       	ld	r24, Z
    1e0a:	89 83       	std	Y+1, r24	; 0x01
    1e0c:	0e 5f       	subi	r16, 0xFE	; 254
    1e0e:	1f 4f       	sbci	r17, 0xFF	; 255
    1e10:	88 24       	eor	r8, r8
    1e12:	83 94       	inc	r8
    1e14:	91 2c       	mov	r9, r1
    1e16:	53 01       	movw	r10, r6
    1e18:	13 c0       	rjmp	.+38     	; 0x1e40 <vfprintf+0x154>
    1e1a:	28 01       	movw	r4, r16
    1e1c:	f2 e0       	ldi	r31, 0x02	; 2
    1e1e:	4f 0e       	add	r4, r31
    1e20:	51 1c       	adc	r5, r1
    1e22:	f8 01       	movw	r30, r16
    1e24:	a0 80       	ld	r10, Z
    1e26:	b1 80       	ldd	r11, Z+1	; 0x01
    1e28:	36 fe       	sbrs	r3, 6
    1e2a:	03 c0       	rjmp	.+6      	; 0x1e32 <vfprintf+0x146>
    1e2c:	69 2d       	mov	r22, r9
    1e2e:	70 e0       	ldi	r23, 0x00	; 0
    1e30:	02 c0       	rjmp	.+4      	; 0x1e36 <vfprintf+0x14a>
    1e32:	6f ef       	ldi	r22, 0xFF	; 255
    1e34:	7f ef       	ldi	r23, 0xFF	; 255
    1e36:	c5 01       	movw	r24, r10
    1e38:	0e 94 94 12 	call	0x2528	; 0x2528 <strnlen>
    1e3c:	4c 01       	movw	r8, r24
    1e3e:	82 01       	movw	r16, r4
    1e40:	f3 2d       	mov	r31, r3
    1e42:	ff 77       	andi	r31, 0x7F	; 127
    1e44:	3f 2e       	mov	r3, r31
    1e46:	16 c0       	rjmp	.+44     	; 0x1e74 <vfprintf+0x188>
    1e48:	28 01       	movw	r4, r16
    1e4a:	22 e0       	ldi	r18, 0x02	; 2
    1e4c:	42 0e       	add	r4, r18
    1e4e:	51 1c       	adc	r5, r1
    1e50:	f8 01       	movw	r30, r16
    1e52:	a0 80       	ld	r10, Z
    1e54:	b1 80       	ldd	r11, Z+1	; 0x01
    1e56:	36 fe       	sbrs	r3, 6
    1e58:	03 c0       	rjmp	.+6      	; 0x1e60 <vfprintf+0x174>
    1e5a:	69 2d       	mov	r22, r9
    1e5c:	70 e0       	ldi	r23, 0x00	; 0
    1e5e:	02 c0       	rjmp	.+4      	; 0x1e64 <vfprintf+0x178>
    1e60:	6f ef       	ldi	r22, 0xFF	; 255
    1e62:	7f ef       	ldi	r23, 0xFF	; 255
    1e64:	c5 01       	movw	r24, r10
    1e66:	0e 94 89 12 	call	0x2512	; 0x2512 <strnlen_P>
    1e6a:	4c 01       	movw	r8, r24
    1e6c:	f3 2d       	mov	r31, r3
    1e6e:	f0 68       	ori	r31, 0x80	; 128
    1e70:	3f 2e       	mov	r3, r31
    1e72:	82 01       	movw	r16, r4
    1e74:	33 fc       	sbrc	r3, 3
    1e76:	1b c0       	rjmp	.+54     	; 0x1eae <vfprintf+0x1c2>
    1e78:	82 2d       	mov	r24, r2
    1e7a:	90 e0       	ldi	r25, 0x00	; 0
    1e7c:	88 16       	cp	r8, r24
    1e7e:	99 06       	cpc	r9, r25
    1e80:	b0 f4       	brcc	.+44     	; 0x1eae <vfprintf+0x1c2>
    1e82:	b6 01       	movw	r22, r12
    1e84:	80 e2       	ldi	r24, 0x20	; 32
    1e86:	90 e0       	ldi	r25, 0x00	; 0
    1e88:	0e 94 9f 12 	call	0x253e	; 0x253e <fputc>
    1e8c:	2a 94       	dec	r2
    1e8e:	f4 cf       	rjmp	.-24     	; 0x1e78 <vfprintf+0x18c>
    1e90:	f5 01       	movw	r30, r10
    1e92:	37 fc       	sbrc	r3, 7
    1e94:	85 91       	lpm	r24, Z+
    1e96:	37 fe       	sbrs	r3, 7
    1e98:	81 91       	ld	r24, Z+
    1e9a:	5f 01       	movw	r10, r30
    1e9c:	b6 01       	movw	r22, r12
    1e9e:	90 e0       	ldi	r25, 0x00	; 0
    1ea0:	0e 94 9f 12 	call	0x253e	; 0x253e <fputc>
    1ea4:	21 10       	cpse	r2, r1
    1ea6:	2a 94       	dec	r2
    1ea8:	21 e0       	ldi	r18, 0x01	; 1
    1eaa:	82 1a       	sub	r8, r18
    1eac:	91 08       	sbc	r9, r1
    1eae:	81 14       	cp	r8, r1
    1eb0:	91 04       	cpc	r9, r1
    1eb2:	71 f7       	brne	.-36     	; 0x1e90 <vfprintf+0x1a4>
    1eb4:	e8 c0       	rjmp	.+464    	; 0x2086 <vfprintf+0x39a>
    1eb6:	84 36       	cpi	r24, 0x64	; 100
    1eb8:	11 f0       	breq	.+4      	; 0x1ebe <vfprintf+0x1d2>
    1eba:	89 36       	cpi	r24, 0x69	; 105
    1ebc:	41 f5       	brne	.+80     	; 0x1f0e <vfprintf+0x222>
    1ebe:	f8 01       	movw	r30, r16
    1ec0:	37 fe       	sbrs	r3, 7
    1ec2:	07 c0       	rjmp	.+14     	; 0x1ed2 <vfprintf+0x1e6>
    1ec4:	60 81       	ld	r22, Z
    1ec6:	71 81       	ldd	r23, Z+1	; 0x01
    1ec8:	82 81       	ldd	r24, Z+2	; 0x02
    1eca:	93 81       	ldd	r25, Z+3	; 0x03
    1ecc:	0c 5f       	subi	r16, 0xFC	; 252
    1ece:	1f 4f       	sbci	r17, 0xFF	; 255
    1ed0:	08 c0       	rjmp	.+16     	; 0x1ee2 <vfprintf+0x1f6>
    1ed2:	60 81       	ld	r22, Z
    1ed4:	71 81       	ldd	r23, Z+1	; 0x01
    1ed6:	07 2e       	mov	r0, r23
    1ed8:	00 0c       	add	r0, r0
    1eda:	88 0b       	sbc	r24, r24
    1edc:	99 0b       	sbc	r25, r25
    1ede:	0e 5f       	subi	r16, 0xFE	; 254
    1ee0:	1f 4f       	sbci	r17, 0xFF	; 255
    1ee2:	f3 2d       	mov	r31, r3
    1ee4:	ff 76       	andi	r31, 0x6F	; 111
    1ee6:	3f 2e       	mov	r3, r31
    1ee8:	97 ff       	sbrs	r25, 7
    1eea:	09 c0       	rjmp	.+18     	; 0x1efe <vfprintf+0x212>
    1eec:	90 95       	com	r25
    1eee:	80 95       	com	r24
    1ef0:	70 95       	com	r23
    1ef2:	61 95       	neg	r22
    1ef4:	7f 4f       	sbci	r23, 0xFF	; 255
    1ef6:	8f 4f       	sbci	r24, 0xFF	; 255
    1ef8:	9f 4f       	sbci	r25, 0xFF	; 255
    1efa:	f0 68       	ori	r31, 0x80	; 128
    1efc:	3f 2e       	mov	r3, r31
    1efe:	2a e0       	ldi	r18, 0x0A	; 10
    1f00:	30 e0       	ldi	r19, 0x00	; 0
    1f02:	a3 01       	movw	r20, r6
    1f04:	0e 94 db 12 	call	0x25b6	; 0x25b6 <__ultoa_invert>
    1f08:	88 2e       	mov	r8, r24
    1f0a:	86 18       	sub	r8, r6
    1f0c:	45 c0       	rjmp	.+138    	; 0x1f98 <vfprintf+0x2ac>
    1f0e:	85 37       	cpi	r24, 0x75	; 117
    1f10:	31 f4       	brne	.+12     	; 0x1f1e <vfprintf+0x232>
    1f12:	23 2d       	mov	r18, r3
    1f14:	2f 7e       	andi	r18, 0xEF	; 239
    1f16:	b2 2e       	mov	r11, r18
    1f18:	2a e0       	ldi	r18, 0x0A	; 10
    1f1a:	30 e0       	ldi	r19, 0x00	; 0
    1f1c:	25 c0       	rjmp	.+74     	; 0x1f68 <vfprintf+0x27c>
    1f1e:	93 2d       	mov	r25, r3
    1f20:	99 7f       	andi	r25, 0xF9	; 249
    1f22:	b9 2e       	mov	r11, r25
    1f24:	8f 36       	cpi	r24, 0x6F	; 111
    1f26:	c1 f0       	breq	.+48     	; 0x1f58 <vfprintf+0x26c>
    1f28:	18 f4       	brcc	.+6      	; 0x1f30 <vfprintf+0x244>
    1f2a:	88 35       	cpi	r24, 0x58	; 88
    1f2c:	79 f0       	breq	.+30     	; 0x1f4c <vfprintf+0x260>
    1f2e:	b5 c0       	rjmp	.+362    	; 0x209a <vfprintf+0x3ae>
    1f30:	80 37       	cpi	r24, 0x70	; 112
    1f32:	19 f0       	breq	.+6      	; 0x1f3a <vfprintf+0x24e>
    1f34:	88 37       	cpi	r24, 0x78	; 120
    1f36:	21 f0       	breq	.+8      	; 0x1f40 <vfprintf+0x254>
    1f38:	b0 c0       	rjmp	.+352    	; 0x209a <vfprintf+0x3ae>
    1f3a:	e9 2f       	mov	r30, r25
    1f3c:	e0 61       	ori	r30, 0x10	; 16
    1f3e:	be 2e       	mov	r11, r30
    1f40:	b4 fe       	sbrs	r11, 4
    1f42:	0d c0       	rjmp	.+26     	; 0x1f5e <vfprintf+0x272>
    1f44:	fb 2d       	mov	r31, r11
    1f46:	f4 60       	ori	r31, 0x04	; 4
    1f48:	bf 2e       	mov	r11, r31
    1f4a:	09 c0       	rjmp	.+18     	; 0x1f5e <vfprintf+0x272>
    1f4c:	34 fe       	sbrs	r3, 4
    1f4e:	0a c0       	rjmp	.+20     	; 0x1f64 <vfprintf+0x278>
    1f50:	29 2f       	mov	r18, r25
    1f52:	26 60       	ori	r18, 0x06	; 6
    1f54:	b2 2e       	mov	r11, r18
    1f56:	06 c0       	rjmp	.+12     	; 0x1f64 <vfprintf+0x278>
    1f58:	28 e0       	ldi	r18, 0x08	; 8
    1f5a:	30 e0       	ldi	r19, 0x00	; 0
    1f5c:	05 c0       	rjmp	.+10     	; 0x1f68 <vfprintf+0x27c>
    1f5e:	20 e1       	ldi	r18, 0x10	; 16
    1f60:	30 e0       	ldi	r19, 0x00	; 0
    1f62:	02 c0       	rjmp	.+4      	; 0x1f68 <vfprintf+0x27c>
    1f64:	20 e1       	ldi	r18, 0x10	; 16
    1f66:	32 e0       	ldi	r19, 0x02	; 2
    1f68:	f8 01       	movw	r30, r16
    1f6a:	b7 fe       	sbrs	r11, 7
    1f6c:	07 c0       	rjmp	.+14     	; 0x1f7c <vfprintf+0x290>
    1f6e:	60 81       	ld	r22, Z
    1f70:	71 81       	ldd	r23, Z+1	; 0x01
    1f72:	82 81       	ldd	r24, Z+2	; 0x02
    1f74:	93 81       	ldd	r25, Z+3	; 0x03
    1f76:	0c 5f       	subi	r16, 0xFC	; 252
    1f78:	1f 4f       	sbci	r17, 0xFF	; 255
    1f7a:	06 c0       	rjmp	.+12     	; 0x1f88 <vfprintf+0x29c>
    1f7c:	60 81       	ld	r22, Z
    1f7e:	71 81       	ldd	r23, Z+1	; 0x01
    1f80:	80 e0       	ldi	r24, 0x00	; 0
    1f82:	90 e0       	ldi	r25, 0x00	; 0
    1f84:	0e 5f       	subi	r16, 0xFE	; 254
    1f86:	1f 4f       	sbci	r17, 0xFF	; 255
    1f88:	a3 01       	movw	r20, r6
    1f8a:	0e 94 db 12 	call	0x25b6	; 0x25b6 <__ultoa_invert>
    1f8e:	88 2e       	mov	r8, r24
    1f90:	86 18       	sub	r8, r6
    1f92:	fb 2d       	mov	r31, r11
    1f94:	ff 77       	andi	r31, 0x7F	; 127
    1f96:	3f 2e       	mov	r3, r31
    1f98:	36 fe       	sbrs	r3, 6
    1f9a:	0d c0       	rjmp	.+26     	; 0x1fb6 <vfprintf+0x2ca>
    1f9c:	23 2d       	mov	r18, r3
    1f9e:	2e 7f       	andi	r18, 0xFE	; 254
    1fa0:	a2 2e       	mov	r10, r18
    1fa2:	89 14       	cp	r8, r9
    1fa4:	58 f4       	brcc	.+22     	; 0x1fbc <vfprintf+0x2d0>
    1fa6:	34 fe       	sbrs	r3, 4
    1fa8:	0b c0       	rjmp	.+22     	; 0x1fc0 <vfprintf+0x2d4>
    1faa:	32 fc       	sbrc	r3, 2
    1fac:	09 c0       	rjmp	.+18     	; 0x1fc0 <vfprintf+0x2d4>
    1fae:	83 2d       	mov	r24, r3
    1fb0:	8e 7e       	andi	r24, 0xEE	; 238
    1fb2:	a8 2e       	mov	r10, r24
    1fb4:	05 c0       	rjmp	.+10     	; 0x1fc0 <vfprintf+0x2d4>
    1fb6:	b8 2c       	mov	r11, r8
    1fb8:	a3 2c       	mov	r10, r3
    1fba:	03 c0       	rjmp	.+6      	; 0x1fc2 <vfprintf+0x2d6>
    1fbc:	b8 2c       	mov	r11, r8
    1fbe:	01 c0       	rjmp	.+2      	; 0x1fc2 <vfprintf+0x2d6>
    1fc0:	b9 2c       	mov	r11, r9
    1fc2:	a4 fe       	sbrs	r10, 4
    1fc4:	0f c0       	rjmp	.+30     	; 0x1fe4 <vfprintf+0x2f8>
    1fc6:	fe 01       	movw	r30, r28
    1fc8:	e8 0d       	add	r30, r8
    1fca:	f1 1d       	adc	r31, r1
    1fcc:	80 81       	ld	r24, Z
    1fce:	80 33       	cpi	r24, 0x30	; 48
    1fd0:	21 f4       	brne	.+8      	; 0x1fda <vfprintf+0x2ee>
    1fd2:	9a 2d       	mov	r25, r10
    1fd4:	99 7e       	andi	r25, 0xE9	; 233
    1fd6:	a9 2e       	mov	r10, r25
    1fd8:	09 c0       	rjmp	.+18     	; 0x1fec <vfprintf+0x300>
    1fda:	a2 fe       	sbrs	r10, 2
    1fdc:	06 c0       	rjmp	.+12     	; 0x1fea <vfprintf+0x2fe>
    1fde:	b3 94       	inc	r11
    1fe0:	b3 94       	inc	r11
    1fe2:	04 c0       	rjmp	.+8      	; 0x1fec <vfprintf+0x300>
    1fe4:	8a 2d       	mov	r24, r10
    1fe6:	86 78       	andi	r24, 0x86	; 134
    1fe8:	09 f0       	breq	.+2      	; 0x1fec <vfprintf+0x300>
    1fea:	b3 94       	inc	r11
    1fec:	a3 fc       	sbrc	r10, 3
    1fee:	11 c0       	rjmp	.+34     	; 0x2012 <vfprintf+0x326>
    1ff0:	a0 fe       	sbrs	r10, 0
    1ff2:	06 c0       	rjmp	.+12     	; 0x2000 <vfprintf+0x314>
    1ff4:	b2 14       	cp	r11, r2
    1ff6:	88 f4       	brcc	.+34     	; 0x201a <vfprintf+0x32e>
    1ff8:	28 0c       	add	r2, r8
    1ffa:	92 2c       	mov	r9, r2
    1ffc:	9b 18       	sub	r9, r11
    1ffe:	0e c0       	rjmp	.+28     	; 0x201c <vfprintf+0x330>
    2000:	b2 14       	cp	r11, r2
    2002:	60 f4       	brcc	.+24     	; 0x201c <vfprintf+0x330>
    2004:	b6 01       	movw	r22, r12
    2006:	80 e2       	ldi	r24, 0x20	; 32
    2008:	90 e0       	ldi	r25, 0x00	; 0
    200a:	0e 94 9f 12 	call	0x253e	; 0x253e <fputc>
    200e:	b3 94       	inc	r11
    2010:	f7 cf       	rjmp	.-18     	; 0x2000 <vfprintf+0x314>
    2012:	b2 14       	cp	r11, r2
    2014:	18 f4       	brcc	.+6      	; 0x201c <vfprintf+0x330>
    2016:	2b 18       	sub	r2, r11
    2018:	02 c0       	rjmp	.+4      	; 0x201e <vfprintf+0x332>
    201a:	98 2c       	mov	r9, r8
    201c:	21 2c       	mov	r2, r1
    201e:	a4 fe       	sbrs	r10, 4
    2020:	10 c0       	rjmp	.+32     	; 0x2042 <vfprintf+0x356>
    2022:	b6 01       	movw	r22, r12
    2024:	80 e3       	ldi	r24, 0x30	; 48
    2026:	90 e0       	ldi	r25, 0x00	; 0
    2028:	0e 94 9f 12 	call	0x253e	; 0x253e <fputc>
    202c:	a2 fe       	sbrs	r10, 2
    202e:	17 c0       	rjmp	.+46     	; 0x205e <vfprintf+0x372>
    2030:	a1 fc       	sbrc	r10, 1
    2032:	03 c0       	rjmp	.+6      	; 0x203a <vfprintf+0x34e>
    2034:	88 e7       	ldi	r24, 0x78	; 120
    2036:	90 e0       	ldi	r25, 0x00	; 0
    2038:	02 c0       	rjmp	.+4      	; 0x203e <vfprintf+0x352>
    203a:	88 e5       	ldi	r24, 0x58	; 88
    203c:	90 e0       	ldi	r25, 0x00	; 0
    203e:	b6 01       	movw	r22, r12
    2040:	0c c0       	rjmp	.+24     	; 0x205a <vfprintf+0x36e>
    2042:	8a 2d       	mov	r24, r10
    2044:	86 78       	andi	r24, 0x86	; 134
    2046:	59 f0       	breq	.+22     	; 0x205e <vfprintf+0x372>
    2048:	a1 fe       	sbrs	r10, 1
    204a:	02 c0       	rjmp	.+4      	; 0x2050 <vfprintf+0x364>
    204c:	8b e2       	ldi	r24, 0x2B	; 43
    204e:	01 c0       	rjmp	.+2      	; 0x2052 <vfprintf+0x366>
    2050:	80 e2       	ldi	r24, 0x20	; 32
    2052:	a7 fc       	sbrc	r10, 7
    2054:	8d e2       	ldi	r24, 0x2D	; 45
    2056:	b6 01       	movw	r22, r12
    2058:	90 e0       	ldi	r25, 0x00	; 0
    205a:	0e 94 9f 12 	call	0x253e	; 0x253e <fputc>
    205e:	89 14       	cp	r8, r9
    2060:	38 f4       	brcc	.+14     	; 0x2070 <vfprintf+0x384>
    2062:	b6 01       	movw	r22, r12
    2064:	80 e3       	ldi	r24, 0x30	; 48
    2066:	90 e0       	ldi	r25, 0x00	; 0
    2068:	0e 94 9f 12 	call	0x253e	; 0x253e <fputc>
    206c:	9a 94       	dec	r9
    206e:	f7 cf       	rjmp	.-18     	; 0x205e <vfprintf+0x372>
    2070:	8a 94       	dec	r8
    2072:	f3 01       	movw	r30, r6
    2074:	e8 0d       	add	r30, r8
    2076:	f1 1d       	adc	r31, r1
    2078:	80 81       	ld	r24, Z
    207a:	b6 01       	movw	r22, r12
    207c:	90 e0       	ldi	r25, 0x00	; 0
    207e:	0e 94 9f 12 	call	0x253e	; 0x253e <fputc>
    2082:	81 10       	cpse	r8, r1
    2084:	f5 cf       	rjmp	.-22     	; 0x2070 <vfprintf+0x384>
    2086:	22 20       	and	r2, r2
    2088:	09 f4       	brne	.+2      	; 0x208c <vfprintf+0x3a0>
    208a:	42 ce       	rjmp	.-892    	; 0x1d10 <vfprintf+0x24>
    208c:	b6 01       	movw	r22, r12
    208e:	80 e2       	ldi	r24, 0x20	; 32
    2090:	90 e0       	ldi	r25, 0x00	; 0
    2092:	0e 94 9f 12 	call	0x253e	; 0x253e <fputc>
    2096:	2a 94       	dec	r2
    2098:	f6 cf       	rjmp	.-20     	; 0x2086 <vfprintf+0x39a>
    209a:	f6 01       	movw	r30, r12
    209c:	86 81       	ldd	r24, Z+6	; 0x06
    209e:	97 81       	ldd	r25, Z+7	; 0x07
    20a0:	02 c0       	rjmp	.+4      	; 0x20a6 <vfprintf+0x3ba>
    20a2:	8f ef       	ldi	r24, 0xFF	; 255
    20a4:	9f ef       	ldi	r25, 0xFF	; 255
    20a6:	2b 96       	adiw	r28, 0x0b	; 11
    20a8:	e2 e1       	ldi	r30, 0x12	; 18
    20aa:	0c 94 84 13 	jmp	0x2708	; 0x2708 <__epilogue_restores__>

000020ae <dtoa_prf>:
    20ae:	a9 e0       	ldi	r26, 0x09	; 9
    20b0:	b0 e0       	ldi	r27, 0x00	; 0
    20b2:	ed e5       	ldi	r30, 0x5D	; 93
    20b4:	f0 e1       	ldi	r31, 0x10	; 16
    20b6:	0c 94 6e 13 	jmp	0x26dc	; 0x26dc <__prologue_saves__+0xc>
    20ba:	6a 01       	movw	r12, r20
    20bc:	12 2f       	mov	r17, r18
    20be:	b0 2e       	mov	r11, r16
    20c0:	2b e3       	ldi	r18, 0x3B	; 59
    20c2:	20 17       	cp	r18, r16
    20c4:	20 f0       	brcs	.+8      	; 0x20ce <dtoa_prf+0x20>
    20c6:	ff 24       	eor	r15, r15
    20c8:	f3 94       	inc	r15
    20ca:	f0 0e       	add	r15, r16
    20cc:	02 c0       	rjmp	.+4      	; 0x20d2 <dtoa_prf+0x24>
    20ce:	2c e3       	ldi	r18, 0x3C	; 60
    20d0:	f2 2e       	mov	r15, r18
    20d2:	0f 2d       	mov	r16, r15
    20d4:	27 e0       	ldi	r18, 0x07	; 7
    20d6:	ae 01       	movw	r20, r28
    20d8:	4f 5f       	subi	r20, 0xFF	; 255
    20da:	5f 4f       	sbci	r21, 0xFF	; 255
    20dc:	0e 94 b1 11 	call	0x2362	; 0x2362 <__ftoa_engine>
    20e0:	bc 01       	movw	r22, r24
    20e2:	49 81       	ldd	r20, Y+1	; 0x01
    20e4:	84 2f       	mov	r24, r20
    20e6:	89 70       	andi	r24, 0x09	; 9
    20e8:	81 30       	cpi	r24, 0x01	; 1
    20ea:	31 f0       	breq	.+12     	; 0x20f8 <dtoa_prf+0x4a>
    20ec:	e1 fc       	sbrc	r14, 1
    20ee:	06 c0       	rjmp	.+12     	; 0x20fc <dtoa_prf+0x4e>
    20f0:	e0 fe       	sbrs	r14, 0
    20f2:	06 c0       	rjmp	.+12     	; 0x2100 <dtoa_prf+0x52>
    20f4:	90 e2       	ldi	r25, 0x20	; 32
    20f6:	05 c0       	rjmp	.+10     	; 0x2102 <dtoa_prf+0x54>
    20f8:	9d e2       	ldi	r25, 0x2D	; 45
    20fa:	03 c0       	rjmp	.+6      	; 0x2102 <dtoa_prf+0x54>
    20fc:	9b e2       	ldi	r25, 0x2B	; 43
    20fe:	01 c0       	rjmp	.+2      	; 0x2102 <dtoa_prf+0x54>
    2100:	90 e0       	ldi	r25, 0x00	; 0
    2102:	5e 2d       	mov	r21, r14
    2104:	50 71       	andi	r21, 0x10	; 16
    2106:	43 ff       	sbrs	r20, 3
    2108:	3c c0       	rjmp	.+120    	; 0x2182 <dtoa_prf+0xd4>
    210a:	91 11       	cpse	r25, r1
    210c:	02 c0       	rjmp	.+4      	; 0x2112 <dtoa_prf+0x64>
    210e:	83 e0       	ldi	r24, 0x03	; 3
    2110:	01 c0       	rjmp	.+2      	; 0x2114 <dtoa_prf+0x66>
    2112:	84 e0       	ldi	r24, 0x04	; 4
    2114:	81 17       	cp	r24, r17
    2116:	18 f4       	brcc	.+6      	; 0x211e <dtoa_prf+0x70>
    2118:	21 2f       	mov	r18, r17
    211a:	28 1b       	sub	r18, r24
    211c:	01 c0       	rjmp	.+2      	; 0x2120 <dtoa_prf+0x72>
    211e:	20 e0       	ldi	r18, 0x00	; 0
    2120:	51 11       	cpse	r21, r1
    2122:	0b c0       	rjmp	.+22     	; 0x213a <dtoa_prf+0x8c>
    2124:	f6 01       	movw	r30, r12
    2126:	82 2f       	mov	r24, r18
    2128:	30 e2       	ldi	r19, 0x20	; 32
    212a:	88 23       	and	r24, r24
    212c:	19 f0       	breq	.+6      	; 0x2134 <dtoa_prf+0x86>
    212e:	31 93       	st	Z+, r19
    2130:	81 50       	subi	r24, 0x01	; 1
    2132:	fb cf       	rjmp	.-10     	; 0x212a <dtoa_prf+0x7c>
    2134:	c2 0e       	add	r12, r18
    2136:	d1 1c       	adc	r13, r1
    2138:	20 e0       	ldi	r18, 0x00	; 0
    213a:	99 23       	and	r25, r25
    213c:	29 f0       	breq	.+10     	; 0x2148 <dtoa_prf+0x9a>
    213e:	d6 01       	movw	r26, r12
    2140:	9c 93       	st	X, r25
    2142:	f6 01       	movw	r30, r12
    2144:	31 96       	adiw	r30, 0x01	; 1
    2146:	6f 01       	movw	r12, r30
    2148:	c6 01       	movw	r24, r12
    214a:	03 96       	adiw	r24, 0x03	; 3
    214c:	e2 fe       	sbrs	r14, 2
    214e:	0a c0       	rjmp	.+20     	; 0x2164 <dtoa_prf+0xb6>
    2150:	3e e4       	ldi	r19, 0x4E	; 78
    2152:	d6 01       	movw	r26, r12
    2154:	3c 93       	st	X, r19
    2156:	41 e4       	ldi	r20, 0x41	; 65
    2158:	11 96       	adiw	r26, 0x01	; 1
    215a:	4c 93       	st	X, r20
    215c:	11 97       	sbiw	r26, 0x01	; 1
    215e:	12 96       	adiw	r26, 0x02	; 2
    2160:	3c 93       	st	X, r19
    2162:	06 c0       	rjmp	.+12     	; 0x2170 <dtoa_prf+0xc2>
    2164:	3e e6       	ldi	r19, 0x6E	; 110
    2166:	f6 01       	movw	r30, r12
    2168:	30 83       	st	Z, r19
    216a:	41 e6       	ldi	r20, 0x61	; 97
    216c:	41 83       	std	Z+1, r20	; 0x01
    216e:	32 83       	std	Z+2, r19	; 0x02
    2170:	fc 01       	movw	r30, r24
    2172:	32 2f       	mov	r19, r18
    2174:	40 e2       	ldi	r20, 0x20	; 32
    2176:	33 23       	and	r19, r19
    2178:	09 f4       	brne	.+2      	; 0x217c <dtoa_prf+0xce>
    217a:	42 c0       	rjmp	.+132    	; 0x2200 <dtoa_prf+0x152>
    217c:	41 93       	st	Z+, r20
    217e:	31 50       	subi	r19, 0x01	; 1
    2180:	fa cf       	rjmp	.-12     	; 0x2176 <dtoa_prf+0xc8>
    2182:	42 ff       	sbrs	r20, 2
    2184:	44 c0       	rjmp	.+136    	; 0x220e <dtoa_prf+0x160>
    2186:	91 11       	cpse	r25, r1
    2188:	02 c0       	rjmp	.+4      	; 0x218e <dtoa_prf+0xe0>
    218a:	83 e0       	ldi	r24, 0x03	; 3
    218c:	01 c0       	rjmp	.+2      	; 0x2190 <dtoa_prf+0xe2>
    218e:	84 e0       	ldi	r24, 0x04	; 4
    2190:	81 17       	cp	r24, r17
    2192:	18 f4       	brcc	.+6      	; 0x219a <dtoa_prf+0xec>
    2194:	21 2f       	mov	r18, r17
    2196:	28 1b       	sub	r18, r24
    2198:	01 c0       	rjmp	.+2      	; 0x219c <dtoa_prf+0xee>
    219a:	20 e0       	ldi	r18, 0x00	; 0
    219c:	51 11       	cpse	r21, r1
    219e:	0b c0       	rjmp	.+22     	; 0x21b6 <dtoa_prf+0x108>
    21a0:	f6 01       	movw	r30, r12
    21a2:	82 2f       	mov	r24, r18
    21a4:	30 e2       	ldi	r19, 0x20	; 32
    21a6:	88 23       	and	r24, r24
    21a8:	19 f0       	breq	.+6      	; 0x21b0 <dtoa_prf+0x102>
    21aa:	31 93       	st	Z+, r19
    21ac:	81 50       	subi	r24, 0x01	; 1
    21ae:	fb cf       	rjmp	.-10     	; 0x21a6 <dtoa_prf+0xf8>
    21b0:	c2 0e       	add	r12, r18
    21b2:	d1 1c       	adc	r13, r1
    21b4:	20 e0       	ldi	r18, 0x00	; 0
    21b6:	99 23       	and	r25, r25
    21b8:	29 f0       	breq	.+10     	; 0x21c4 <dtoa_prf+0x116>
    21ba:	d6 01       	movw	r26, r12
    21bc:	9c 93       	st	X, r25
    21be:	f6 01       	movw	r30, r12
    21c0:	31 96       	adiw	r30, 0x01	; 1
    21c2:	6f 01       	movw	r12, r30
    21c4:	c6 01       	movw	r24, r12
    21c6:	03 96       	adiw	r24, 0x03	; 3
    21c8:	e2 fe       	sbrs	r14, 2
    21ca:	0b c0       	rjmp	.+22     	; 0x21e2 <dtoa_prf+0x134>
    21cc:	39 e4       	ldi	r19, 0x49	; 73
    21ce:	d6 01       	movw	r26, r12
    21d0:	3c 93       	st	X, r19
    21d2:	3e e4       	ldi	r19, 0x4E	; 78
    21d4:	11 96       	adiw	r26, 0x01	; 1
    21d6:	3c 93       	st	X, r19
    21d8:	11 97       	sbiw	r26, 0x01	; 1
    21da:	36 e4       	ldi	r19, 0x46	; 70
    21dc:	12 96       	adiw	r26, 0x02	; 2
    21de:	3c 93       	st	X, r19
    21e0:	07 c0       	rjmp	.+14     	; 0x21f0 <dtoa_prf+0x142>
    21e2:	39 e6       	ldi	r19, 0x69	; 105
    21e4:	f6 01       	movw	r30, r12
    21e6:	30 83       	st	Z, r19
    21e8:	3e e6       	ldi	r19, 0x6E	; 110
    21ea:	31 83       	std	Z+1, r19	; 0x01
    21ec:	36 e6       	ldi	r19, 0x66	; 102
    21ee:	32 83       	std	Z+2, r19	; 0x02
    21f0:	fc 01       	movw	r30, r24
    21f2:	32 2f       	mov	r19, r18
    21f4:	40 e2       	ldi	r20, 0x20	; 32
    21f6:	33 23       	and	r19, r19
    21f8:	19 f0       	breq	.+6      	; 0x2200 <dtoa_prf+0x152>
    21fa:	41 93       	st	Z+, r20
    21fc:	31 50       	subi	r19, 0x01	; 1
    21fe:	fb cf       	rjmp	.-10     	; 0x21f6 <dtoa_prf+0x148>
    2200:	fc 01       	movw	r30, r24
    2202:	e2 0f       	add	r30, r18
    2204:	f1 1d       	adc	r31, r1
    2206:	10 82       	st	Z, r1
    2208:	8e ef       	ldi	r24, 0xFE	; 254
    220a:	9f ef       	ldi	r25, 0xFF	; 255
    220c:	a6 c0       	rjmp	.+332    	; 0x235a <dtoa_prf+0x2ac>
    220e:	21 e0       	ldi	r18, 0x01	; 1
    2210:	30 e0       	ldi	r19, 0x00	; 0
    2212:	91 11       	cpse	r25, r1
    2214:	02 c0       	rjmp	.+4      	; 0x221a <dtoa_prf+0x16c>
    2216:	20 e0       	ldi	r18, 0x00	; 0
    2218:	30 e0       	ldi	r19, 0x00	; 0
    221a:	16 16       	cp	r1, r22
    221c:	17 06       	cpc	r1, r23
    221e:	1c f4       	brge	.+6      	; 0x2226 <dtoa_prf+0x178>
    2220:	fb 01       	movw	r30, r22
    2222:	31 96       	adiw	r30, 0x01	; 1
    2224:	02 c0       	rjmp	.+4      	; 0x222a <dtoa_prf+0x17c>
    2226:	e1 e0       	ldi	r30, 0x01	; 1
    2228:	f0 e0       	ldi	r31, 0x00	; 0
    222a:	2e 0f       	add	r18, r30
    222c:	3f 1f       	adc	r19, r31
    222e:	bb 20       	and	r11, r11
    2230:	21 f0       	breq	.+8      	; 0x223a <dtoa_prf+0x18c>
    2232:	eb 2d       	mov	r30, r11
    2234:	f0 e0       	ldi	r31, 0x00	; 0
    2236:	31 96       	adiw	r30, 0x01	; 1
    2238:	02 c0       	rjmp	.+4      	; 0x223e <dtoa_prf+0x190>
    223a:	e0 e0       	ldi	r30, 0x00	; 0
    223c:	f0 e0       	ldi	r31, 0x00	; 0
    223e:	2e 0f       	add	r18, r30
    2240:	3f 1f       	adc	r19, r31
    2242:	e1 2f       	mov	r30, r17
    2244:	f0 e0       	ldi	r31, 0x00	; 0
    2246:	2e 17       	cp	r18, r30
    2248:	3f 07       	cpc	r19, r31
    224a:	1c f4       	brge	.+6      	; 0x2252 <dtoa_prf+0x1a4>
    224c:	12 1b       	sub	r17, r18
    224e:	21 2f       	mov	r18, r17
    2250:	01 c0       	rjmp	.+2      	; 0x2254 <dtoa_prf+0x1a6>
    2252:	20 e0       	ldi	r18, 0x00	; 0
    2254:	8e 2d       	mov	r24, r14
    2256:	88 71       	andi	r24, 0x18	; 24
    2258:	59 f4       	brne	.+22     	; 0x2270 <dtoa_prf+0x1c2>
    225a:	f6 01       	movw	r30, r12
    225c:	82 2f       	mov	r24, r18
    225e:	30 e2       	ldi	r19, 0x20	; 32
    2260:	88 23       	and	r24, r24
    2262:	19 f0       	breq	.+6      	; 0x226a <dtoa_prf+0x1bc>
    2264:	31 93       	st	Z+, r19
    2266:	81 50       	subi	r24, 0x01	; 1
    2268:	fb cf       	rjmp	.-10     	; 0x2260 <dtoa_prf+0x1b2>
    226a:	c2 0e       	add	r12, r18
    226c:	d1 1c       	adc	r13, r1
    226e:	20 e0       	ldi	r18, 0x00	; 0
    2270:	99 23       	and	r25, r25
    2272:	29 f0       	breq	.+10     	; 0x227e <dtoa_prf+0x1d0>
    2274:	d6 01       	movw	r26, r12
    2276:	9c 93       	st	X, r25
    2278:	f6 01       	movw	r30, r12
    227a:	31 96       	adiw	r30, 0x01	; 1
    227c:	6f 01       	movw	r12, r30
    227e:	51 11       	cpse	r21, r1
    2280:	0b c0       	rjmp	.+22     	; 0x2298 <dtoa_prf+0x1ea>
    2282:	f6 01       	movw	r30, r12
    2284:	82 2f       	mov	r24, r18
    2286:	90 e3       	ldi	r25, 0x30	; 48
    2288:	88 23       	and	r24, r24
    228a:	19 f0       	breq	.+6      	; 0x2292 <dtoa_prf+0x1e4>
    228c:	91 93       	st	Z+, r25
    228e:	81 50       	subi	r24, 0x01	; 1
    2290:	fb cf       	rjmp	.-10     	; 0x2288 <dtoa_prf+0x1da>
    2292:	c2 0e       	add	r12, r18
    2294:	d1 1c       	adc	r13, r1
    2296:	20 e0       	ldi	r18, 0x00	; 0
    2298:	0f 2d       	mov	r16, r15
    229a:	06 0f       	add	r16, r22
    229c:	9a 81       	ldd	r25, Y+2	; 0x02
    229e:	34 2f       	mov	r19, r20
    22a0:	30 71       	andi	r19, 0x10	; 16
    22a2:	44 ff       	sbrs	r20, 4
    22a4:	03 c0       	rjmp	.+6      	; 0x22ac <dtoa_prf+0x1fe>
    22a6:	91 33       	cpi	r25, 0x31	; 49
    22a8:	09 f4       	brne	.+2      	; 0x22ac <dtoa_prf+0x1fe>
    22aa:	01 50       	subi	r16, 0x01	; 1
    22ac:	10 16       	cp	r1, r16
    22ae:	24 f4       	brge	.+8      	; 0x22b8 <dtoa_prf+0x20a>
    22b0:	09 30       	cpi	r16, 0x09	; 9
    22b2:	18 f0       	brcs	.+6      	; 0x22ba <dtoa_prf+0x20c>
    22b4:	08 e0       	ldi	r16, 0x08	; 8
    22b6:	01 c0       	rjmp	.+2      	; 0x22ba <dtoa_prf+0x20c>
    22b8:	01 e0       	ldi	r16, 0x01	; 1
    22ba:	ab 01       	movw	r20, r22
    22bc:	77 ff       	sbrs	r23, 7
    22be:	02 c0       	rjmp	.+4      	; 0x22c4 <dtoa_prf+0x216>
    22c0:	40 e0       	ldi	r20, 0x00	; 0
    22c2:	50 e0       	ldi	r21, 0x00	; 0
    22c4:	fb 01       	movw	r30, r22
    22c6:	e4 1b       	sub	r30, r20
    22c8:	f5 0b       	sbc	r31, r21
    22ca:	a1 e0       	ldi	r26, 0x01	; 1
    22cc:	b0 e0       	ldi	r27, 0x00	; 0
    22ce:	ac 0f       	add	r26, r28
    22d0:	bd 1f       	adc	r27, r29
    22d2:	ea 0f       	add	r30, r26
    22d4:	fb 1f       	adc	r31, r27
    22d6:	8e e2       	ldi	r24, 0x2E	; 46
    22d8:	a8 2e       	mov	r10, r24
    22da:	4b 01       	movw	r8, r22
    22dc:	80 1a       	sub	r8, r16
    22de:	91 08       	sbc	r9, r1
    22e0:	0b 2d       	mov	r16, r11
    22e2:	10 e0       	ldi	r17, 0x00	; 0
    22e4:	11 95       	neg	r17
    22e6:	01 95       	neg	r16
    22e8:	11 09       	sbc	r17, r1
    22ea:	4f 3f       	cpi	r20, 0xFF	; 255
    22ec:	bf ef       	ldi	r27, 0xFF	; 255
    22ee:	5b 07       	cpc	r21, r27
    22f0:	21 f4       	brne	.+8      	; 0x22fa <dtoa_prf+0x24c>
    22f2:	d6 01       	movw	r26, r12
    22f4:	ac 92       	st	X, r10
    22f6:	11 96       	adiw	r26, 0x01	; 1
    22f8:	6d 01       	movw	r12, r26
    22fa:	64 17       	cp	r22, r20
    22fc:	75 07       	cpc	r23, r21
    22fe:	2c f0       	brlt	.+10     	; 0x230a <dtoa_prf+0x25c>
    2300:	84 16       	cp	r8, r20
    2302:	95 06       	cpc	r9, r21
    2304:	14 f4       	brge	.+4      	; 0x230a <dtoa_prf+0x25c>
    2306:	81 81       	ldd	r24, Z+1	; 0x01
    2308:	01 c0       	rjmp	.+2      	; 0x230c <dtoa_prf+0x25e>
    230a:	80 e3       	ldi	r24, 0x30	; 48
    230c:	41 50       	subi	r20, 0x01	; 1
    230e:	51 09       	sbc	r21, r1
    2310:	31 96       	adiw	r30, 0x01	; 1
    2312:	d6 01       	movw	r26, r12
    2314:	11 96       	adiw	r26, 0x01	; 1
    2316:	7d 01       	movw	r14, r26
    2318:	40 17       	cp	r20, r16
    231a:	51 07       	cpc	r21, r17
    231c:	24 f0       	brlt	.+8      	; 0x2326 <dtoa_prf+0x278>
    231e:	d6 01       	movw	r26, r12
    2320:	8c 93       	st	X, r24
    2322:	67 01       	movw	r12, r14
    2324:	e2 cf       	rjmp	.-60     	; 0x22ea <dtoa_prf+0x23c>
    2326:	64 17       	cp	r22, r20
    2328:	75 07       	cpc	r23, r21
    232a:	39 f4       	brne	.+14     	; 0x233a <dtoa_prf+0x28c>
    232c:	96 33       	cpi	r25, 0x36	; 54
    232e:	20 f4       	brcc	.+8      	; 0x2338 <dtoa_prf+0x28a>
    2330:	95 33       	cpi	r25, 0x35	; 53
    2332:	19 f4       	brne	.+6      	; 0x233a <dtoa_prf+0x28c>
    2334:	31 11       	cpse	r19, r1
    2336:	01 c0       	rjmp	.+2      	; 0x233a <dtoa_prf+0x28c>
    2338:	81 e3       	ldi	r24, 0x31	; 49
    233a:	f6 01       	movw	r30, r12
    233c:	80 83       	st	Z, r24
    233e:	f7 01       	movw	r30, r14
    2340:	82 2f       	mov	r24, r18
    2342:	90 e2       	ldi	r25, 0x20	; 32
    2344:	88 23       	and	r24, r24
    2346:	19 f0       	breq	.+6      	; 0x234e <dtoa_prf+0x2a0>
    2348:	91 93       	st	Z+, r25
    234a:	81 50       	subi	r24, 0x01	; 1
    234c:	fb cf       	rjmp	.-10     	; 0x2344 <dtoa_prf+0x296>
    234e:	f7 01       	movw	r30, r14
    2350:	e2 0f       	add	r30, r18
    2352:	f1 1d       	adc	r31, r1
    2354:	10 82       	st	Z, r1
    2356:	80 e0       	ldi	r24, 0x00	; 0
    2358:	90 e0       	ldi	r25, 0x00	; 0
    235a:	29 96       	adiw	r28, 0x09	; 9
    235c:	ec e0       	ldi	r30, 0x0C	; 12
    235e:	0c 94 8a 13 	jmp	0x2714	; 0x2714 <__epilogue_restores__+0xc>

00002362 <__ftoa_engine>:
    2362:	28 30       	cpi	r18, 0x08	; 8
    2364:	08 f0       	brcs	.+2      	; 0x2368 <__ftoa_engine+0x6>
    2366:	27 e0       	ldi	r18, 0x07	; 7
    2368:	33 27       	eor	r19, r19
    236a:	da 01       	movw	r26, r20
    236c:	99 0f       	add	r25, r25
    236e:	31 1d       	adc	r19, r1
    2370:	87 fd       	sbrc	r24, 7
    2372:	91 60       	ori	r25, 0x01	; 1
    2374:	00 96       	adiw	r24, 0x00	; 0
    2376:	61 05       	cpc	r22, r1
    2378:	71 05       	cpc	r23, r1
    237a:	39 f4       	brne	.+14     	; 0x238a <__ftoa_engine+0x28>
    237c:	32 60       	ori	r19, 0x02	; 2
    237e:	2e 5f       	subi	r18, 0xFE	; 254
    2380:	3d 93       	st	X+, r19
    2382:	30 e3       	ldi	r19, 0x30	; 48
    2384:	2a 95       	dec	r18
    2386:	e1 f7       	brne	.-8      	; 0x2380 <__ftoa_engine+0x1e>
    2388:	08 95       	ret
    238a:	9f 3f       	cpi	r25, 0xFF	; 255
    238c:	30 f0       	brcs	.+12     	; 0x239a <__ftoa_engine+0x38>
    238e:	80 38       	cpi	r24, 0x80	; 128
    2390:	71 05       	cpc	r23, r1
    2392:	61 05       	cpc	r22, r1
    2394:	09 f0       	breq	.+2      	; 0x2398 <__ftoa_engine+0x36>
    2396:	3c 5f       	subi	r19, 0xFC	; 252
    2398:	3c 5f       	subi	r19, 0xFC	; 252
    239a:	3d 93       	st	X+, r19
    239c:	91 30       	cpi	r25, 0x01	; 1
    239e:	08 f0       	brcs	.+2      	; 0x23a2 <__ftoa_engine+0x40>
    23a0:	80 68       	ori	r24, 0x80	; 128
    23a2:	91 1d       	adc	r25, r1
    23a4:	df 93       	push	r29
    23a6:	cf 93       	push	r28
    23a8:	1f 93       	push	r17
    23aa:	0f 93       	push	r16
    23ac:	ff 92       	push	r15
    23ae:	ef 92       	push	r14
    23b0:	19 2f       	mov	r17, r25
    23b2:	98 7f       	andi	r25, 0xF8	; 248
    23b4:	96 95       	lsr	r25
    23b6:	e9 2f       	mov	r30, r25
    23b8:	96 95       	lsr	r25
    23ba:	96 95       	lsr	r25
    23bc:	e9 0f       	add	r30, r25
    23be:	ff 27       	eor	r31, r31
    23c0:	ea 5d       	subi	r30, 0xDA	; 218
    23c2:	fe 4f       	sbci	r31, 0xFE	; 254
    23c4:	99 27       	eor	r25, r25
    23c6:	33 27       	eor	r19, r19
    23c8:	ee 24       	eor	r14, r14
    23ca:	ff 24       	eor	r15, r15
    23cc:	a7 01       	movw	r20, r14
    23ce:	e7 01       	movw	r28, r14
    23d0:	05 90       	lpm	r0, Z+
    23d2:	08 94       	sec
    23d4:	07 94       	ror	r0
    23d6:	28 f4       	brcc	.+10     	; 0x23e2 <__ftoa_engine+0x80>
    23d8:	36 0f       	add	r19, r22
    23da:	e7 1e       	adc	r14, r23
    23dc:	f8 1e       	adc	r15, r24
    23de:	49 1f       	adc	r20, r25
    23e0:	51 1d       	adc	r21, r1
    23e2:	66 0f       	add	r22, r22
    23e4:	77 1f       	adc	r23, r23
    23e6:	88 1f       	adc	r24, r24
    23e8:	99 1f       	adc	r25, r25
    23ea:	06 94       	lsr	r0
    23ec:	a1 f7       	brne	.-24     	; 0x23d6 <__ftoa_engine+0x74>
    23ee:	05 90       	lpm	r0, Z+
    23f0:	07 94       	ror	r0
    23f2:	28 f4       	brcc	.+10     	; 0x23fe <__ftoa_engine+0x9c>
    23f4:	e7 0e       	add	r14, r23
    23f6:	f8 1e       	adc	r15, r24
    23f8:	49 1f       	adc	r20, r25
    23fa:	56 1f       	adc	r21, r22
    23fc:	c1 1d       	adc	r28, r1
    23fe:	77 0f       	add	r23, r23
    2400:	88 1f       	adc	r24, r24
    2402:	99 1f       	adc	r25, r25
    2404:	66 1f       	adc	r22, r22
    2406:	06 94       	lsr	r0
    2408:	a1 f7       	brne	.-24     	; 0x23f2 <__ftoa_engine+0x90>
    240a:	05 90       	lpm	r0, Z+
    240c:	07 94       	ror	r0
    240e:	28 f4       	brcc	.+10     	; 0x241a <__ftoa_engine+0xb8>
    2410:	f8 0e       	add	r15, r24
    2412:	49 1f       	adc	r20, r25
    2414:	56 1f       	adc	r21, r22
    2416:	c7 1f       	adc	r28, r23
    2418:	d1 1d       	adc	r29, r1
    241a:	88 0f       	add	r24, r24
    241c:	99 1f       	adc	r25, r25
    241e:	66 1f       	adc	r22, r22
    2420:	77 1f       	adc	r23, r23
    2422:	06 94       	lsr	r0
    2424:	a1 f7       	brne	.-24     	; 0x240e <__ftoa_engine+0xac>
    2426:	05 90       	lpm	r0, Z+
    2428:	07 94       	ror	r0
    242a:	20 f4       	brcc	.+8      	; 0x2434 <__ftoa_engine+0xd2>
    242c:	49 0f       	add	r20, r25
    242e:	56 1f       	adc	r21, r22
    2430:	c7 1f       	adc	r28, r23
    2432:	d8 1f       	adc	r29, r24
    2434:	99 0f       	add	r25, r25
    2436:	66 1f       	adc	r22, r22
    2438:	77 1f       	adc	r23, r23
    243a:	88 1f       	adc	r24, r24
    243c:	06 94       	lsr	r0
    243e:	a9 f7       	brne	.-22     	; 0x242a <__ftoa_engine+0xc8>
    2440:	84 91       	lpm	r24, Z
    2442:	10 95       	com	r17
    2444:	17 70       	andi	r17, 0x07	; 7
    2446:	41 f0       	breq	.+16     	; 0x2458 <__ftoa_engine+0xf6>
    2448:	d6 95       	lsr	r29
    244a:	c7 95       	ror	r28
    244c:	57 95       	ror	r21
    244e:	47 95       	ror	r20
    2450:	f7 94       	ror	r15
    2452:	e7 94       	ror	r14
    2454:	1a 95       	dec	r17
    2456:	c1 f7       	brne	.-16     	; 0x2448 <__ftoa_engine+0xe6>
    2458:	ec ec       	ldi	r30, 0xCC	; 204
    245a:	f0 e0       	ldi	r31, 0x00	; 0
    245c:	68 94       	set
    245e:	15 90       	lpm	r1, Z+
    2460:	15 91       	lpm	r17, Z+
    2462:	35 91       	lpm	r19, Z+
    2464:	65 91       	lpm	r22, Z+
    2466:	95 91       	lpm	r25, Z+
    2468:	05 90       	lpm	r0, Z+
    246a:	7f e2       	ldi	r23, 0x2F	; 47
    246c:	73 95       	inc	r23
    246e:	e1 18       	sub	r14, r1
    2470:	f1 0a       	sbc	r15, r17
    2472:	43 0b       	sbc	r20, r19
    2474:	56 0b       	sbc	r21, r22
    2476:	c9 0b       	sbc	r28, r25
    2478:	d0 09       	sbc	r29, r0
    247a:	c0 f7       	brcc	.-16     	; 0x246c <__ftoa_engine+0x10a>
    247c:	e1 0c       	add	r14, r1
    247e:	f1 1e       	adc	r15, r17
    2480:	43 1f       	adc	r20, r19
    2482:	56 1f       	adc	r21, r22
    2484:	c9 1f       	adc	r28, r25
    2486:	d0 1d       	adc	r29, r0
    2488:	7e f4       	brtc	.+30     	; 0x24a8 <__ftoa_engine+0x146>
    248a:	70 33       	cpi	r23, 0x30	; 48
    248c:	11 f4       	brne	.+4      	; 0x2492 <__ftoa_engine+0x130>
    248e:	8a 95       	dec	r24
    2490:	e6 cf       	rjmp	.-52     	; 0x245e <__ftoa_engine+0xfc>
    2492:	e8 94       	clt
    2494:	01 50       	subi	r16, 0x01	; 1
    2496:	30 f0       	brcs	.+12     	; 0x24a4 <__ftoa_engine+0x142>
    2498:	08 0f       	add	r16, r24
    249a:	0a f4       	brpl	.+2      	; 0x249e <__ftoa_engine+0x13c>
    249c:	00 27       	eor	r16, r16
    249e:	02 17       	cp	r16, r18
    24a0:	08 f4       	brcc	.+2      	; 0x24a4 <__ftoa_engine+0x142>
    24a2:	20 2f       	mov	r18, r16
    24a4:	23 95       	inc	r18
    24a6:	02 2f       	mov	r16, r18
    24a8:	7a 33       	cpi	r23, 0x3A	; 58
    24aa:	28 f0       	brcs	.+10     	; 0x24b6 <__ftoa_engine+0x154>
    24ac:	79 e3       	ldi	r23, 0x39	; 57
    24ae:	7d 93       	st	X+, r23
    24b0:	2a 95       	dec	r18
    24b2:	e9 f7       	brne	.-6      	; 0x24ae <__ftoa_engine+0x14c>
    24b4:	10 c0       	rjmp	.+32     	; 0x24d6 <__ftoa_engine+0x174>
    24b6:	7d 93       	st	X+, r23
    24b8:	2a 95       	dec	r18
    24ba:	89 f6       	brne	.-94     	; 0x245e <__ftoa_engine+0xfc>
    24bc:	06 94       	lsr	r0
    24be:	97 95       	ror	r25
    24c0:	67 95       	ror	r22
    24c2:	37 95       	ror	r19
    24c4:	17 95       	ror	r17
    24c6:	17 94       	ror	r1
    24c8:	e1 18       	sub	r14, r1
    24ca:	f1 0a       	sbc	r15, r17
    24cc:	43 0b       	sbc	r20, r19
    24ce:	56 0b       	sbc	r21, r22
    24d0:	c9 0b       	sbc	r28, r25
    24d2:	d0 09       	sbc	r29, r0
    24d4:	98 f0       	brcs	.+38     	; 0x24fc <__ftoa_engine+0x19a>
    24d6:	23 95       	inc	r18
    24d8:	7e 91       	ld	r23, -X
    24da:	73 95       	inc	r23
    24dc:	7a 33       	cpi	r23, 0x3A	; 58
    24de:	08 f0       	brcs	.+2      	; 0x24e2 <__ftoa_engine+0x180>
    24e0:	70 e3       	ldi	r23, 0x30	; 48
    24e2:	7c 93       	st	X, r23
    24e4:	20 13       	cpse	r18, r16
    24e6:	b8 f7       	brcc	.-18     	; 0x24d6 <__ftoa_engine+0x174>
    24e8:	7e 91       	ld	r23, -X
    24ea:	70 61       	ori	r23, 0x10	; 16
    24ec:	7d 93       	st	X+, r23
    24ee:	30 f0       	brcs	.+12     	; 0x24fc <__ftoa_engine+0x19a>
    24f0:	83 95       	inc	r24
    24f2:	71 e3       	ldi	r23, 0x31	; 49
    24f4:	7d 93       	st	X+, r23
    24f6:	70 e3       	ldi	r23, 0x30	; 48
    24f8:	2a 95       	dec	r18
    24fa:	e1 f7       	brne	.-8      	; 0x24f4 <__ftoa_engine+0x192>
    24fc:	11 24       	eor	r1, r1
    24fe:	ef 90       	pop	r14
    2500:	ff 90       	pop	r15
    2502:	0f 91       	pop	r16
    2504:	1f 91       	pop	r17
    2506:	cf 91       	pop	r28
    2508:	df 91       	pop	r29
    250a:	99 27       	eor	r25, r25
    250c:	87 fd       	sbrc	r24, 7
    250e:	90 95       	com	r25
    2510:	08 95       	ret

00002512 <strnlen_P>:
    2512:	fc 01       	movw	r30, r24
    2514:	05 90       	lpm	r0, Z+
    2516:	61 50       	subi	r22, 0x01	; 1
    2518:	70 40       	sbci	r23, 0x00	; 0
    251a:	01 10       	cpse	r0, r1
    251c:	d8 f7       	brcc	.-10     	; 0x2514 <strnlen_P+0x2>
    251e:	80 95       	com	r24
    2520:	90 95       	com	r25
    2522:	8e 0f       	add	r24, r30
    2524:	9f 1f       	adc	r25, r31
    2526:	08 95       	ret

00002528 <strnlen>:
    2528:	fc 01       	movw	r30, r24
    252a:	61 50       	subi	r22, 0x01	; 1
    252c:	70 40       	sbci	r23, 0x00	; 0
    252e:	01 90       	ld	r0, Z+
    2530:	01 10       	cpse	r0, r1
    2532:	d8 f7       	brcc	.-10     	; 0x252a <strnlen+0x2>
    2534:	80 95       	com	r24
    2536:	90 95       	com	r25
    2538:	8e 0f       	add	r24, r30
    253a:	9f 1f       	adc	r25, r31
    253c:	08 95       	ret

0000253e <fputc>:
    253e:	0f 93       	push	r16
    2540:	1f 93       	push	r17
    2542:	cf 93       	push	r28
    2544:	df 93       	push	r29
    2546:	fb 01       	movw	r30, r22
    2548:	23 81       	ldd	r18, Z+3	; 0x03
    254a:	21 fd       	sbrc	r18, 1
    254c:	03 c0       	rjmp	.+6      	; 0x2554 <fputc+0x16>
    254e:	8f ef       	ldi	r24, 0xFF	; 255
    2550:	9f ef       	ldi	r25, 0xFF	; 255
    2552:	2c c0       	rjmp	.+88     	; 0x25ac <fputc+0x6e>
    2554:	22 ff       	sbrs	r18, 2
    2556:	16 c0       	rjmp	.+44     	; 0x2584 <fputc+0x46>
    2558:	46 81       	ldd	r20, Z+6	; 0x06
    255a:	57 81       	ldd	r21, Z+7	; 0x07
    255c:	24 81       	ldd	r18, Z+4	; 0x04
    255e:	35 81       	ldd	r19, Z+5	; 0x05
    2560:	42 17       	cp	r20, r18
    2562:	53 07       	cpc	r21, r19
    2564:	44 f4       	brge	.+16     	; 0x2576 <fputc+0x38>
    2566:	a0 81       	ld	r26, Z
    2568:	b1 81       	ldd	r27, Z+1	; 0x01
    256a:	9d 01       	movw	r18, r26
    256c:	2f 5f       	subi	r18, 0xFF	; 255
    256e:	3f 4f       	sbci	r19, 0xFF	; 255
    2570:	31 83       	std	Z+1, r19	; 0x01
    2572:	20 83       	st	Z, r18
    2574:	8c 93       	st	X, r24
    2576:	26 81       	ldd	r18, Z+6	; 0x06
    2578:	37 81       	ldd	r19, Z+7	; 0x07
    257a:	2f 5f       	subi	r18, 0xFF	; 255
    257c:	3f 4f       	sbci	r19, 0xFF	; 255
    257e:	37 83       	std	Z+7, r19	; 0x07
    2580:	26 83       	std	Z+6, r18	; 0x06
    2582:	14 c0       	rjmp	.+40     	; 0x25ac <fputc+0x6e>
    2584:	8b 01       	movw	r16, r22
    2586:	ec 01       	movw	r28, r24
    2588:	fb 01       	movw	r30, r22
    258a:	00 84       	ldd	r0, Z+8	; 0x08
    258c:	f1 85       	ldd	r31, Z+9	; 0x09
    258e:	e0 2d       	mov	r30, r0
    2590:	09 95       	icall
    2592:	89 2b       	or	r24, r25
    2594:	e1 f6       	brne	.-72     	; 0x254e <fputc+0x10>
    2596:	d8 01       	movw	r26, r16
    2598:	16 96       	adiw	r26, 0x06	; 6
    259a:	8d 91       	ld	r24, X+
    259c:	9c 91       	ld	r25, X
    259e:	17 97       	sbiw	r26, 0x07	; 7
    25a0:	01 96       	adiw	r24, 0x01	; 1
    25a2:	17 96       	adiw	r26, 0x07	; 7
    25a4:	9c 93       	st	X, r25
    25a6:	8e 93       	st	-X, r24
    25a8:	16 97       	sbiw	r26, 0x06	; 6
    25aa:	ce 01       	movw	r24, r28
    25ac:	df 91       	pop	r29
    25ae:	cf 91       	pop	r28
    25b0:	1f 91       	pop	r17
    25b2:	0f 91       	pop	r16
    25b4:	08 95       	ret

000025b6 <__ultoa_invert>:
    25b6:	fa 01       	movw	r30, r20
    25b8:	aa 27       	eor	r26, r26
    25ba:	28 30       	cpi	r18, 0x08	; 8
    25bc:	51 f1       	breq	.+84     	; 0x2612 <__ultoa_invert+0x5c>
    25be:	20 31       	cpi	r18, 0x10	; 16
    25c0:	81 f1       	breq	.+96     	; 0x2622 <__ultoa_invert+0x6c>
    25c2:	e8 94       	clt
    25c4:	6f 93       	push	r22
    25c6:	6e 7f       	andi	r22, 0xFE	; 254
    25c8:	6e 5f       	subi	r22, 0xFE	; 254
    25ca:	7f 4f       	sbci	r23, 0xFF	; 255
    25cc:	8f 4f       	sbci	r24, 0xFF	; 255
    25ce:	9f 4f       	sbci	r25, 0xFF	; 255
    25d0:	af 4f       	sbci	r26, 0xFF	; 255
    25d2:	b1 e0       	ldi	r27, 0x01	; 1
    25d4:	3e d0       	rcall	.+124    	; 0x2652 <__ultoa_invert+0x9c>
    25d6:	b4 e0       	ldi	r27, 0x04	; 4
    25d8:	3c d0       	rcall	.+120    	; 0x2652 <__ultoa_invert+0x9c>
    25da:	67 0f       	add	r22, r23
    25dc:	78 1f       	adc	r23, r24
    25de:	89 1f       	adc	r24, r25
    25e0:	9a 1f       	adc	r25, r26
    25e2:	a1 1d       	adc	r26, r1
    25e4:	68 0f       	add	r22, r24
    25e6:	79 1f       	adc	r23, r25
    25e8:	8a 1f       	adc	r24, r26
    25ea:	91 1d       	adc	r25, r1
    25ec:	a1 1d       	adc	r26, r1
    25ee:	6a 0f       	add	r22, r26
    25f0:	71 1d       	adc	r23, r1
    25f2:	81 1d       	adc	r24, r1
    25f4:	91 1d       	adc	r25, r1
    25f6:	a1 1d       	adc	r26, r1
    25f8:	20 d0       	rcall	.+64     	; 0x263a <__ultoa_invert+0x84>
    25fa:	09 f4       	brne	.+2      	; 0x25fe <__ultoa_invert+0x48>
    25fc:	68 94       	set
    25fe:	3f 91       	pop	r19
    2600:	2a e0       	ldi	r18, 0x0A	; 10
    2602:	26 9f       	mul	r18, r22
    2604:	11 24       	eor	r1, r1
    2606:	30 19       	sub	r19, r0
    2608:	30 5d       	subi	r19, 0xD0	; 208
    260a:	31 93       	st	Z+, r19
    260c:	de f6       	brtc	.-74     	; 0x25c4 <__ultoa_invert+0xe>
    260e:	cf 01       	movw	r24, r30
    2610:	08 95       	ret
    2612:	46 2f       	mov	r20, r22
    2614:	47 70       	andi	r20, 0x07	; 7
    2616:	40 5d       	subi	r20, 0xD0	; 208
    2618:	41 93       	st	Z+, r20
    261a:	b3 e0       	ldi	r27, 0x03	; 3
    261c:	0f d0       	rcall	.+30     	; 0x263c <__ultoa_invert+0x86>
    261e:	c9 f7       	brne	.-14     	; 0x2612 <__ultoa_invert+0x5c>
    2620:	f6 cf       	rjmp	.-20     	; 0x260e <__ultoa_invert+0x58>
    2622:	46 2f       	mov	r20, r22
    2624:	4f 70       	andi	r20, 0x0F	; 15
    2626:	40 5d       	subi	r20, 0xD0	; 208
    2628:	4a 33       	cpi	r20, 0x3A	; 58
    262a:	18 f0       	brcs	.+6      	; 0x2632 <__ultoa_invert+0x7c>
    262c:	49 5d       	subi	r20, 0xD9	; 217
    262e:	31 fd       	sbrc	r19, 1
    2630:	40 52       	subi	r20, 0x20	; 32
    2632:	41 93       	st	Z+, r20
    2634:	02 d0       	rcall	.+4      	; 0x263a <__ultoa_invert+0x84>
    2636:	a9 f7       	brne	.-22     	; 0x2622 <__ultoa_invert+0x6c>
    2638:	ea cf       	rjmp	.-44     	; 0x260e <__ultoa_invert+0x58>
    263a:	b4 e0       	ldi	r27, 0x04	; 4
    263c:	a6 95       	lsr	r26
    263e:	97 95       	ror	r25
    2640:	87 95       	ror	r24
    2642:	77 95       	ror	r23
    2644:	67 95       	ror	r22
    2646:	ba 95       	dec	r27
    2648:	c9 f7       	brne	.-14     	; 0x263c <__ultoa_invert+0x86>
    264a:	00 97       	sbiw	r24, 0x00	; 0
    264c:	61 05       	cpc	r22, r1
    264e:	71 05       	cpc	r23, r1
    2650:	08 95       	ret
    2652:	9b 01       	movw	r18, r22
    2654:	ac 01       	movw	r20, r24
    2656:	0a 2e       	mov	r0, r26
    2658:	06 94       	lsr	r0
    265a:	57 95       	ror	r21
    265c:	47 95       	ror	r20
    265e:	37 95       	ror	r19
    2660:	27 95       	ror	r18
    2662:	ba 95       	dec	r27
    2664:	c9 f7       	brne	.-14     	; 0x2658 <__ultoa_invert+0xa2>
    2666:	62 0f       	add	r22, r18
    2668:	73 1f       	adc	r23, r19
    266a:	84 1f       	adc	r24, r20
    266c:	95 1f       	adc	r25, r21
    266e:	a0 1d       	adc	r26, r0
    2670:	08 95       	ret

00002672 <eeprom_read_block>:
    2672:	dc 01       	movw	r26, r24
    2674:	cb 01       	movw	r24, r22

00002676 <eeprom_read_blraw>:
    2676:	fc 01       	movw	r30, r24
    2678:	e1 99       	sbic	0x1c, 1	; 28
    267a:	fe cf       	rjmp	.-4      	; 0x2678 <eeprom_read_blraw+0x2>
    267c:	06 c0       	rjmp	.+12     	; 0x268a <eeprom_read_blraw+0x14>
    267e:	ff bb       	out	0x1f, r31	; 31
    2680:	ee bb       	out	0x1e, r30	; 30
    2682:	e0 9a       	sbi	0x1c, 0	; 28
    2684:	31 96       	adiw	r30, 0x01	; 1
    2686:	0d b2       	in	r0, 0x1d	; 29
    2688:	0d 92       	st	X+, r0
    268a:	41 50       	subi	r20, 0x01	; 1
    268c:	50 40       	sbci	r21, 0x00	; 0
    268e:	b8 f7       	brcc	.-18     	; 0x267e <eeprom_read_blraw+0x8>
    2690:	08 95       	ret

00002692 <eeprom_read_byte>:
    2692:	e1 99       	sbic	0x1c, 1	; 28
    2694:	fe cf       	rjmp	.-4      	; 0x2692 <eeprom_read_byte>
    2696:	9f bb       	out	0x1f, r25	; 31
    2698:	8e bb       	out	0x1e, r24	; 30
    269a:	e0 9a       	sbi	0x1c, 0	; 28
    269c:	99 27       	eor	r25, r25
    269e:	8d b3       	in	r24, 0x1d	; 29
    26a0:	08 95       	ret

000026a2 <eeprom_read_word>:
    26a2:	a8 e1       	ldi	r26, 0x18	; 24
    26a4:	b0 e0       	ldi	r27, 0x00	; 0
    26a6:	42 e0       	ldi	r20, 0x02	; 2
    26a8:	50 e0       	ldi	r21, 0x00	; 0
    26aa:	0c 94 3b 13 	jmp	0x2676	; 0x2676 <eeprom_read_blraw>

000026ae <eeprom_update_byte>:
    26ae:	26 2f       	mov	r18, r22

000026b0 <eeprom_update_r18>:
    26b0:	e1 99       	sbic	0x1c, 1	; 28
    26b2:	fe cf       	rjmp	.-4      	; 0x26b0 <eeprom_update_r18>
    26b4:	9f bb       	out	0x1f, r25	; 31
    26b6:	8e bb       	out	0x1e, r24	; 30
    26b8:	e0 9a       	sbi	0x1c, 0	; 28
    26ba:	01 97       	sbiw	r24, 0x01	; 1
    26bc:	0d b2       	in	r0, 0x1d	; 29
    26be:	02 16       	cp	r0, r18
    26c0:	31 f0       	breq	.+12     	; 0x26ce <eeprom_update_r18+0x1e>
    26c2:	2d bb       	out	0x1d, r18	; 29
    26c4:	0f b6       	in	r0, 0x3f	; 63
    26c6:	f8 94       	cli
    26c8:	e2 9a       	sbi	0x1c, 2	; 28
    26ca:	e1 9a       	sbi	0x1c, 1	; 28
    26cc:	0f be       	out	0x3f, r0	; 63
    26ce:	08 95       	ret

000026d0 <__prologue_saves__>:
    26d0:	2f 92       	push	r2
    26d2:	3f 92       	push	r3
    26d4:	4f 92       	push	r4
    26d6:	5f 92       	push	r5
    26d8:	6f 92       	push	r6
    26da:	7f 92       	push	r7
    26dc:	8f 92       	push	r8
    26de:	9f 92       	push	r9
    26e0:	af 92       	push	r10
    26e2:	bf 92       	push	r11
    26e4:	cf 92       	push	r12
    26e6:	df 92       	push	r13
    26e8:	ef 92       	push	r14
    26ea:	ff 92       	push	r15
    26ec:	0f 93       	push	r16
    26ee:	1f 93       	push	r17
    26f0:	cf 93       	push	r28
    26f2:	df 93       	push	r29
    26f4:	cd b7       	in	r28, 0x3d	; 61
    26f6:	de b7       	in	r29, 0x3e	; 62
    26f8:	ca 1b       	sub	r28, r26
    26fa:	db 0b       	sbc	r29, r27
    26fc:	0f b6       	in	r0, 0x3f	; 63
    26fe:	f8 94       	cli
    2700:	de bf       	out	0x3e, r29	; 62
    2702:	0f be       	out	0x3f, r0	; 63
    2704:	cd bf       	out	0x3d, r28	; 61
    2706:	09 94       	ijmp

00002708 <__epilogue_restores__>:
    2708:	2a 88       	ldd	r2, Y+18	; 0x12
    270a:	39 88       	ldd	r3, Y+17	; 0x11
    270c:	48 88       	ldd	r4, Y+16	; 0x10
    270e:	5f 84       	ldd	r5, Y+15	; 0x0f
    2710:	6e 84       	ldd	r6, Y+14	; 0x0e
    2712:	7d 84       	ldd	r7, Y+13	; 0x0d
    2714:	8c 84       	ldd	r8, Y+12	; 0x0c
    2716:	9b 84       	ldd	r9, Y+11	; 0x0b
    2718:	aa 84       	ldd	r10, Y+10	; 0x0a
    271a:	b9 84       	ldd	r11, Y+9	; 0x09
    271c:	c8 84       	ldd	r12, Y+8	; 0x08
    271e:	df 80       	ldd	r13, Y+7	; 0x07
    2720:	ee 80       	ldd	r14, Y+6	; 0x06
    2722:	fd 80       	ldd	r15, Y+5	; 0x05
    2724:	0c 81       	ldd	r16, Y+4	; 0x04
    2726:	1b 81       	ldd	r17, Y+3	; 0x03
    2728:	aa 81       	ldd	r26, Y+2	; 0x02
    272a:	b9 81       	ldd	r27, Y+1	; 0x01
    272c:	ce 0f       	add	r28, r30
    272e:	d1 1d       	adc	r29, r1
    2730:	0f b6       	in	r0, 0x3f	; 63
    2732:	f8 94       	cli
    2734:	de bf       	out	0x3e, r29	; 62
    2736:	0f be       	out	0x3f, r0	; 63
    2738:	cd bf       	out	0x3d, r28	; 61
    273a:	ed 01       	movw	r28, r26
    273c:	08 95       	ret

0000273e <_exit>:
    273e:	f8 94       	cli

00002740 <__stop_program>:
    2740:	ff cf       	rjmp	.-2      	; 0x2740 <__stop_program>
